Archive member included because of file (symbol)

libbb/lib.a(appletlib.o)      /home/pangbai/tmp/ndk/x86_64/sysroot//usr/lib/x86_64-linux-android/24/crtbegin_dynamic.o (main)
libbb/lib.a(compare_string_array.o)
                              libbb/lib.a(appletlib.o) (is_prefixed_with)
libbb/lib.a(concat_path_file.o)
                              libbb/lib.a(appletlib.o) (concat_path_file)
libbb/lib.a(default_error_retval.o)
                              libbb/lib.a(appletlib.o) (xfunc_error_retval)
libbb/lib.a(get_last_path_component.o)
                              libbb/lib.a(appletlib.o) (bb_basename)
libbb/lib.a(last_char_is.o)   libbb/lib.a(concat_path_file.o) (last_char_is)
libbb/lib.a(messages.o)       libbb/lib.a(appletlib.o) (bb_banner)
libbb/lib.a(perror_msg.o)     libbb/lib.a(appletlib.o) (bb_simple_perror_msg)
libbb/lib.a(ptr_to_globals.o)
                              libbb/lib.a(appletlib.o) (bb_errno)
libbb/lib.a(verror_msg.o)     libbb/lib.a(appletlib.o) (bb_error_msg_and_die)
libbb/lib.a(vfork_daemon_rexec.o)
                              libbb/lib.a(appletlib.o) (re_execed_comm)
libbb/lib.a(xfunc_die.o)      libbb/lib.a(vfork_daemon_rexec.o) (die_func)
libbb/lib.a(xfuncs.o)         libbb/lib.a(vfork_daemon_rexec.o) (_exit_SUCCESS)
libbb/lib.a(xfuncs_printf.o)  libbb/lib.a(verror_msg.o) (fflush_all)
libbb/lib.a(xreadlink.o)      libbb/lib.a(appletlib.o) (xmalloc_readlink)
libbb/lib.a(copyfd.o)         libbb/lib.a(xfuncs_printf.o) (bb_copyfd_eof)
libbb/lib.a(full_write.o)     libbb/lib.a(verror_msg.o) (full_write)
libbb/lib.a(getopt32.o)       libbb/lib.a(vfork_daemon_rexec.o) (option_mask32)
libbb/lib.a(llist.o)          libbb/lib.a(getopt32.o) (llist_add_to_end)
libbb/lib.a(read.o)           libbb/lib.a(xfuncs_printf.o) (open_read_close)
libbb/lib.a(safe_strncpy.o)   libbb/lib.a(getopt32.o) (overlapping_strcpy)
libbb/lib.a(safe_write.o)     libbb/lib.a(full_write.o) (safe_write)
libbb/lib.a(signals.o)        libbb/lib.a(xfuncs_printf.o) (kill_myself_with_sig)
libbb/lib.a(time.o)           libbb/lib.a(xfuncs_printf.o) (monotonic_us)
libbb/lib.a(xatonum.o)        libbb/lib.a(getopt32.o) (xatoi_positive)
libbb/lib.a(xgetcwd.o)        libbb/lib.a(xreadlink.o) (xrealloc_getcwd_or_warn)
libbb/lib.a(bb_strtonum.o)    libbb/lib.a(time.o) (bb_strtoll)
miscutils/lib.a(readahead.o)  libbb/lib.a(appletlib.o) (readahead_main)
networking/lib.a(nslookup.o)  libbb/lib.a(appletlib.o) (nslookup_main)
networking/lib.a(ping.o)      libbb/lib.a(appletlib.o) (ping_main)
networking/lib.a(wget.o)      libbb/lib.a(appletlib.o) (wget_main)
networking/lib.a(parse_pasv_epsv.o)
                              networking/lib.a(wget.o) (parse_pasv_epsv)
networking/lib.a(tls.o)       networking/lib.a(wget.o) (tls_handshake)
networking/lib.a(tls_aes.o)   networking/lib.a(tls.o) (aes_cbc_decrypt)
networking/lib.a(tls_aesgcm.o)
                              networking/lib.a(tls.o) (aesgcm_GHASH)
networking/lib.a(tls_fe.o)    networking/lib.a(tls.o) (curve_x25519_compute_pubkey_and_premaster)
networking/lib.a(tls_pstm.o)  networking/lib.a(tls.o) (pstm_clear)
networking/lib.a(tls_pstm_montgomery_reduce.o)
                              networking/lib.a(tls_pstm.o) (pstm_montgomery_reduce)
networking/lib.a(tls_pstm_mul_comba.o)
                              networking/lib.a(tls_pstm.o) (pstm_mul_comba)
networking/lib.a(tls_pstm_sqr_comba.o)
                              networking/lib.a(tls_pstm.o) (pstm_sqr_comba)
networking/lib.a(tls_rsa.o)   networking/lib.a(tls.o) (psRsaEncryptPub)
networking/lib.a(tls_sp_c32.o)
                              networking/lib.a(tls.o) (curve_P256_compute_pubkey_and_premaster)
procps/lib.a(kill.o)          libbb/lib.a(appletlib.o) (kill_main)
procps/lib.a(lsof.o)          libbb/lib.a(appletlib.o) (lsof_main)
shell/lib.a(ash.o)            libbb/lib.a(appletlib.o) (ash_main)
shell/lib.a(ash_ptr_hack.o)   shell/lib.a(ash.o) (ash_ptr_to_globals_memstack)
shell/lib.a(cttyhack.o)       libbb/lib.a(appletlib.o) (cttyhack_main)
shell/lib.a(math.o)           shell/lib.a(ash.o) (arith)
shell/lib.a(random.o)         shell/lib.a(ash.o) (next_random)
shell/lib.a(shell_common.o)   shell/lib.a(ash.o) (defifsvar)
dowork/lib.a(dowork.o)        libbb/lib.a(appletlib.o) (dowork_main)
archival/lib.a(ar.o)          libbb/lib.a(appletlib.o) (ar_main)
archival/lib.a(bbunzip.o)     libbb/lib.a(appletlib.o) (bunzip2_main)
archival/lib.a(bzip2.o)       libbb/lib.a(appletlib.o) (bzip2_main)
archival/lib.a(cpio.o)        libbb/lib.a(appletlib.o) (cpio_main)
archival/lib.a(dpkg.o)        libbb/lib.a(appletlib.o) (dpkg_main)
archival/lib.a(dpkg_deb.o)    libbb/lib.a(appletlib.o) (dpkg_deb_main)
archival/lib.a(gzip.o)        libbb/lib.a(appletlib.o) (gzip_main)
archival/lib.a(rpm.o)         libbb/lib.a(appletlib.o) (rpm2cpio_main)
archival/lib.a(tar.o)         libbb/lib.a(appletlib.o) (tar_main)
archival/lib.a(unzip.o)       libbb/lib.a(appletlib.o) (unzip_main)
archival/lib.a(chksum_and_xwrite_tar_header.o)
                              archival/lib.a(tar.o) (chksum_and_xwrite_tar_header)
archival/libarchive/lib.a(common.o)
                              archival/lib.a(cpio.o) (cpio_TRAILER)
archival/libarchive/lib.a(data_extract_all.o)
                              archival/lib.a(ar.o) (data_extract_all)
archival/libarchive/lib.a(data_extract_to_command.o)
                              archival/lib.a(tar.o) (data_extract_to_command)
archival/libarchive/lib.a(data_extract_to_stdout.o)
                              archival/lib.a(ar.o) (data_extract_to_stdout)
archival/libarchive/lib.a(data_skip.o)
                              archival/libarchive/lib.a(data_extract_all.o) (data_skip)
archival/libarchive/lib.a(decompress_bunzip2.o)
                              libbb/lib.a(appletlib.o) (unpack_bz2_data)
archival/libarchive/lib.a(decompress_gunzip.o)
                              archival/lib.a(unzip.o) (inflate_unzip)
archival/libarchive/lib.a(decompress_uncompress.o)
                              archival/lib.a(bbunzip.o) (unpack_Z_stream)
archival/libarchive/lib.a(decompress_unlzma.o)
                              archival/lib.a(bbunzip.o) (unpack_lzma_stream)
archival/libarchive/lib.a(decompress_unxz.o)
                              archival/lib.a(bbunzip.o) (unpack_xz_stream)
archival/libarchive/lib.a(filter_accept_list.o)
                              archival/lib.a(ar.o) (filter_accept_list)
archival/libarchive/lib.a(filter_accept_list_reassign.o)
                              archival/lib.a(dpkg.o) (filter_accept_list_reassign)
archival/libarchive/lib.a(filter_accept_reject_list.o)
                              archival/lib.a(tar.o) (filter_accept_reject_list)
archival/libarchive/lib.a(find_list_entry.o)
                              archival/lib.a(ar.o) (find_list_entry)
archival/libarchive/lib.a(get_header_cpio.o)
                              archival/lib.a(cpio.o) (get_header_cpio)
archival/libarchive/lib.a(get_header_tar.o)
                              archival/lib.a(tar.o) (get_header_tar)
archival/libarchive/lib.a(get_header_tar_bz2.o)
                              archival/libarchive/lib.a(filter_accept_list_reassign.o) (get_header_tar_bz2)
archival/libarchive/lib.a(get_header_tar_gz.o)
                              archival/libarchive/lib.a(filter_accept_list_reassign.o) (get_header_tar_gz)
archival/libarchive/lib.a(get_header_tar_lzma.o)
                              archival/libarchive/lib.a(filter_accept_list_reassign.o) (get_header_tar_lzma)
archival/libarchive/lib.a(get_header_tar_xz.o)
                              archival/libarchive/lib.a(filter_accept_list_reassign.o) (get_header_tar_xz)
archival/libarchive/lib.a(header_list.o)
                              archival/lib.a(ar.o) (header_list)
archival/libarchive/lib.a(header_verbose_list.o)
                              archival/lib.a(cpio.o) (header_verbose_list)
archival/libarchive/lib.a(init_handle.o)
                              archival/lib.a(ar.o) (init_handle)
archival/libarchive/lib.a(open_transformer.o)
                              archival/lib.a(rpm.o) (check_errors_in_children)
archival/libarchive/lib.a(seek_by_jump.o)
                              archival/libarchive/lib.a(init_handle.o) (seek_by_jump)
archival/libarchive/lib.a(seek_by_read.o)
                              archival/lib.a(rpm.o) (seek_by_read)
archival/libarchive/lib.a(unpack_ar_archive.o)
                              archival/lib.a(ar.o) (unpack_ar_archive)
archival/libarchive/lib.a(unsafe_prefix.o)
                              archival/lib.a(tar.o) (strip_unsafe_prefix)
archival/libarchive/lib.a(unsafe_symlink_target.o)
                              archival/lib.a(cpio.o) (create_links_from_list)
archival/libarchive/lib.a(data_align.o)
                              archival/libarchive/lib.a(get_header_cpio.o) (data_align)
archival/libarchive/lib.a(filter_accept_all.o)
                              archival/libarchive/lib.a(init_handle.o) (filter_accept_all)
archival/libarchive/lib.a(get_header_ar.o)
                              archival/libarchive/lib.a(unpack_ar_archive.o) (get_header_ar)
archival/libarchive/lib.a(header_skip.o)
                              archival/libarchive/lib.a(init_handle.o) (header_skip)
console-tools/lib.a(clear.o)  libbb/lib.a(appletlib.o) (clear_main)
coreutils/lib.a(cat.o)        libbb/lib.a(appletlib.o) (cat_main)
coreutils/lib.a(chgrp.o)      libbb/lib.a(appletlib.o) (chgrp_main)
coreutils/lib.a(chmod.o)      libbb/lib.a(appletlib.o) (chmod_main)
coreutils/lib.a(chown.o)      libbb/lib.a(appletlib.o) (chown_main)
coreutils/lib.a(chroot.o)     libbb/lib.a(appletlib.o) (chroot_main)
coreutils/lib.a(cksum.o)      libbb/lib.a(appletlib.o) (cksum_main)
coreutils/lib.a(comm.o)       libbb/lib.a(appletlib.o) (comm_main)
coreutils/lib.a(cp.o)         libbb/lib.a(appletlib.o) (cp_main)
coreutils/lib.a(cut.o)        libbb/lib.a(appletlib.o) (cut_main)
coreutils/lib.a(date.o)       libbb/lib.a(appletlib.o) (date_main)
coreutils/lib.a(dd.o)         libbb/lib.a(appletlib.o) (dd_main)
coreutils/lib.a(df.o)         libbb/lib.a(appletlib.o) (df_main)
coreutils/lib.a(dirname.o)    libbb/lib.a(appletlib.o) (dirname_main)
coreutils/lib.a(dos2unix.o)   libbb/lib.a(appletlib.o) (dos2unix_main)
coreutils/lib.a(du.o)         libbb/lib.a(appletlib.o) (du_main)
coreutils/lib.a(echo.o)       libbb/lib.a(appletlib.o) (echo_main)
coreutils/lib.a(env.o)        libbb/lib.a(appletlib.o) (env_main)
coreutils/lib.a(expand.o)     libbb/lib.a(appletlib.o) (expand_main)
coreutils/lib.a(expr.o)       libbb/lib.a(appletlib.o) (expr_main)
coreutils/lib.a(factor.o)     libbb/lib.a(appletlib.o) (factor_main)
coreutils/lib.a(fold.o)       libbb/lib.a(appletlib.o) (fold_main)
coreutils/lib.a(head.o)       libbb/lib.a(appletlib.o) (head_main)
coreutils/lib.a(link.o)       libbb/lib.a(appletlib.o) (link_main)
coreutils/lib.a(ln.o)         libbb/lib.a(appletlib.o) (ln_main)
coreutils/lib.a(ls.o)         libbb/lib.a(appletlib.o) (ls_main)
coreutils/lib.a(md5_sha1_sum.o)
                              libbb/lib.a(appletlib.o) (md5_sha1_sum_main)
coreutils/lib.a(mkdir.o)      libbb/lib.a(appletlib.o) (mkdir_main)
coreutils/lib.a(mv.o)         libbb/lib.a(appletlib.o) (mv_main)
coreutils/lib.a(nl.o)         libbb/lib.a(appletlib.o) (nl_main)
coreutils/lib.a(nohup.o)      libbb/lib.a(appletlib.o) (nohup_main)
coreutils/lib.a(printenv.o)   libbb/lib.a(appletlib.o) (printenv_main)
coreutils/lib.a(printf.o)     libbb/lib.a(appletlib.o) (printf_main)
coreutils/lib.a(pwd.o)        libbb/lib.a(appletlib.o) (pwd_main)
coreutils/lib.a(readlink.o)   libbb/lib.a(appletlib.o) (readlink_main)
coreutils/lib.a(realpath.o)   libbb/lib.a(appletlib.o) (realpath_main)
coreutils/lib.a(rm.o)         libbb/lib.a(appletlib.o) (rm_main)
coreutils/lib.a(rmdir.o)      libbb/lib.a(appletlib.o) (rmdir_main)
coreutils/lib.a(seq.o)        libbb/lib.a(appletlib.o) (seq_main)
coreutils/lib.a(shred.o)      libbb/lib.a(appletlib.o) (shred_main)
coreutils/lib.a(shuf.o)       libbb/lib.a(appletlib.o) (shuf_main)
coreutils/lib.a(sleep.o)      libbb/lib.a(appletlib.o) (sleep_main)
coreutils/lib.a(sort.o)       libbb/lib.a(appletlib.o) (sort_main)
coreutils/lib.a(split.o)      libbb/lib.a(appletlib.o) (split_main)
coreutils/lib.a(sum.o)        libbb/lib.a(appletlib.o) (sum_main)
coreutils/lib.a(tail.o)       libbb/lib.a(appletlib.o) (tail_main)
coreutils/lib.a(test.o)       shell/lib.a(ash.o) (test_main)
coreutils/lib.a(test_ptr_hack.o)
                              coreutils/lib.a(test.o) (test_ptr_to_statics)
coreutils/lib.a(touch.o)      libbb/lib.a(appletlib.o) (touch_main)
coreutils/lib.a(tr.o)         libbb/lib.a(appletlib.o) (tr_main)
coreutils/lib.a(tsort.o)      libbb/lib.a(appletlib.o) (tsort_main)
coreutils/lib.a(tty.o)        libbb/lib.a(appletlib.o) (tty_main)
coreutils/lib.a(uname.o)      libbb/lib.a(appletlib.o) (uname_main)
coreutils/lib.a(uniq.o)       libbb/lib.a(appletlib.o) (uniq_main)
coreutils/lib.a(unlink.o)     libbb/lib.a(appletlib.o) (unlink_main)
coreutils/lib.a(usleep.o)     libbb/lib.a(appletlib.o) (usleep_main)
coreutils/lib.a(uudecode.o)   libbb/lib.a(appletlib.o) (baseNUM_main)
coreutils/lib.a(wc.o)         libbb/lib.a(appletlib.o) (wc_main)
coreutils/lib.a(whoami.o)     libbb/lib.a(appletlib.o) (whoami_main)
coreutils/libcoreutils/lib.a(cp_mv_stat.o)
                              coreutils/lib.a(cp.o) (cp_mv_stat)
debianutils/lib.a(pipe_progress.o)
                              libbb/lib.a(appletlib.o) (pipe_progress_main)
debianutils/lib.a(run_parts.o)
                              libbb/lib.a(appletlib.o) (run_parts_main)
debianutils/lib.a(which.o)    libbb/lib.a(appletlib.o) (which_main)
editors/lib.a(awk.o)          libbb/lib.a(appletlib.o) (awk_main)
editors/lib.a(cmp.o)          libbb/lib.a(appletlib.o) (cmp_main)
editors/lib.a(diff.o)         libbb/lib.a(appletlib.o) (diff_main)
editors/lib.a(ed.o)           libbb/lib.a(appletlib.o) (ed_main)
editors/lib.a(patch.o)        libbb/lib.a(appletlib.o) (patch_main)
editors/lib.a(sed.o)          libbb/lib.a(appletlib.o) (sed_main)
editors/lib.a(vi.o)           libbb/lib.a(appletlib.o) (vi_main)
findutils/lib.a(find.o)       libbb/lib.a(appletlib.o) (find_main)
findutils/lib.a(grep.o)       libbb/lib.a(appletlib.o) (grep_main)
findutils/lib.a(xargs.o)      libbb/lib.a(appletlib.o) (xargs_main)
libbb/lib.a(ask_confirmation.o)
                              coreutils/lib.a(mv.o) (bb_ask_y_confirmation)
libbb/lib.a(bb_cat.o)         coreutils/lib.a(cat.o) (bb_cat)
libbb/lib.a(bb_getgroups.o)   coreutils/lib.a(test.o) (bb_getgroups)
libbb/lib.a(bb_pwd.o)         findutils/lib.a(find.o) (xgroup2gid)
libbb/lib.a(bb_qsort.o)       editors/lib.a(diff.o) (qsort_string_vector)
libbb/lib.a(chomp.o)          archival/lib.a(unzip.o) (chomp)
libbb/lib.a(common_bufsiz.o)  networking/lib.a(ping.o) (bb_common_bufsiz1)
libbb/lib.a(concat_subpath_file.o)
                              coreutils/lib.a(du.o) (concat_subpath_file)
libbb/lib.a(const_hack.o)     shell/lib.a(ash.o) (XZALLOC_CONST_PTR)
libbb/lib.a(copy_file.o)      archival/lib.a(rpm.o) (copy_file)
libbb/lib.a(crc32.o)          archival/lib.a(gzip.o) (crc32_block_endian0)
libbb/lib.a(duration.o)       networking/lib.a(ping.o) (parse_duration_str)
libbb/lib.a(endofname.o)      shell/lib.a(ash.o) (endofname)
libbb/lib.a(executable.o)     shell/lib.a(cttyhack.o) (BB_EXECVP_or_die)
libbb/lib.a(fclose_nonstdin.o)
                              coreutils/lib.a(cut.o) (fclose_if_not_stdin)
libbb/lib.a(fflush_stdout_and_exit.o)
                              coreutils/lib.a(cat.o) (fflush_stdout_and_exit)
libbb/lib.a(fgets_str.o)      archival/lib.a(dpkg.o) (xmalloc_fgetline_str)
libbb/lib.a(find_mount_point.o)
                              coreutils/lib.a(df.o) (find_mount_point)
libbb/lib.a(get_line_from_file.o)
                              archival/lib.a(cpio.o) (bb_get_chunk_from_file)
libbb/lib.a(get_shell_name.o)
                              archival/lib.a(tar.o) (get_shell_name)
libbb/lib.a(hash_md5_sha.o)   archival/lib.a(dpkg.o) (md5_begin)
libbb/lib.a(hash_md5_sha256_x86-64_shaNI.o)
                              libbb/lib.a(hash_md5_sha.o) (sha256_process_block64_shaNI)
libbb/lib.a(hash_md5_sha_x86-64_shaNI.o)
                              libbb/lib.a(hash_md5_sha.o) (sha1_process_block64_shaNI)
libbb/lib.a(human_readable.o)
                              coreutils/lib.a(dd.o) (make_human_readable_str)
libbb/lib.a(inet_cksum.o)     networking/lib.a(ping.o) (inet_cksum)
libbb/lib.a(inode_hash.o)     coreutils/lib.a(du.o) (add_to_ino_dev_hashtable)
libbb/lib.a(isdirectory.o)    coreutils/lib.a(ln.o) (is_directory)
libbb/lib.a(isqrt.o)          coreutils/lib.a(factor.o) (isqrt)
libbb/lib.a(lineedit.o)       shell/lib.a(ash.o) (new_line_input_t)
libbb/lib.a(lineedit_ptr_hack.o)
                              libbb/lib.a(lineedit.o) (lineedit_ptr_to_statics)
libbb/lib.a(make_directory.o)
                              archival/lib.a(cpio.o) (bb_make_directory)
libbb/lib.a(mode_string.o)    archival/lib.a(ar.o) (bb_mode_string)
libbb/lib.a(parse_mode.o)     shell/lib.a(ash.o) (bb_parse_mode)
libbb/lib.a(percent_decode.o)
                              networking/lib.a(wget.o) (percent_decode_in_place)
libbb/lib.a(perror_nomsg_and_die.o)
                              coreutils/lib.a(dos2unix.o) (bb_perror_nomsg_and_die)
libbb/lib.a(print_numbered_lines.o)
                              coreutils/lib.a(cat.o) (print_numbered_lines)
libbb/lib.a(printable.o)      editors/lib.a(ed.o) (fputc_printable)
libbb/lib.a(printable_string.o)
                              archival/lib.a(unzip.o) (printable_string)
libbb/lib.a(process_escape_sequence.o)
                              shell/lib.a(ash.o) (bb_process_escape_sequence)
libbb/lib.a(procps.o)         archival/lib.a(tar.o) (get_cached_groupname)
libbb/lib.a(progress.o)       networking/lib.a(wget.o) (bb_progress_init)
libbb/lib.a(read_key.o)       libbb/lib.a(lineedit.o) (read_key)
libbb/lib.a(read_printf.o)    shell/lib.a(ash.o) (nonblock_immune_read)
libbb/lib.a(recursive_action.o)
                              archival/lib.a(tar.o) (recursive_action)
libbb/lib.a(remove_file.o)    archival/lib.a(rpm.o) (remove_file)
libbb/lib.a(replace.o)        findutils/lib.a(find.o) (count_strstr)
libbb/lib.a(safe_gethostname.o)
                              libbb/lib.a(lineedit.o) (safe_gethostname)
libbb/lib.a(safe_poll.o)      networking/lib.a(wget.o) (safe_poll)
libbb/lib.a(single_argv.o)    coreutils/lib.a(dirname.o) (single_argv)
libbb/lib.a(skip_whitespace.o)
                              networking/lib.a(wget.o) (skip_non_whitespace)
libbb/lib.a(str_tolower.o)    networking/lib.a(wget.o) (str_tolower)
libbb/lib.a(sysconf.o)        shell/lib.a(ash.o) (bb_clk_tck)
libbb/lib.a(u_signal_names.o)
                              procps/lib.a(kill.o) (get_signame)
libbb/lib.a(unicode.o)        libbb/lib.a(lineedit.o) (bb_mbstowcs)
libbb/lib.a(uuencode.o)       networking/lib.a(wget.o) (bb_uuenc_tbl_base64)
libbb/lib.a(wfopen.o)         archival/lib.a(dpkg.o) (fopen_for_read)
libbb/lib.a(wfopen_input.o)   coreutils/lib.a(cut.o) (fopen_or_warn_stdin)
libbb/lib.a(xconnect.o)       networking/lib.a(wget.o) (set_nport)
libbb/lib.a(xrealloc_vector.o)
                              archival/lib.a(dpkg.o) (xrealloc_vector_helper)
libbb/lib.a(xregcomp.o)       coreutils/lib.a(cut.o) (xregcomp)
libbb/lib.a(auto_string.o)    libbb/lib.a(human_readable.o) (auto_string)
libpwdgrp/lib.a(uidgid_get.o)
                              archival/lib.a(cpio.o) (parse_chown_usergroup_or_die)
libres/lib.a(dnscruft3.o)     networking/lib.a(nslookup.o) (_diet_res)
libres/lib.a(freeaddrinfo.o)  libbb/lib.a(xconnect.o) (diet_freeaddrinfo)
libres/lib.a(getaddrinfo.o)   networking/lib.a(nslookup.o) (diet_getaddrinfo)
libres/lib.a(gethostbyname2_r.o)
                              libres/lib.a(getaddrinfo.o) (diet_gethostbyname2_r)
libres/lib.a(res_init.o)      networking/lib.a(nslookup.o) (diet_res_init)
libres/lib.a(dnscruft.o)      libres/lib.a(res_init.o) (__dns_readstartfiles)
libres/lib.a(dnscruft2.o)     libres/lib.a(gethostbyname2_r.o) (__dns_gethostbyx_r)
libres/lib.a(res_query.o)     libres/lib.a(dnscruft2.o) (diet_res_query)
libres/lib.a(h_errno.o)       libres/lib.a(res_query.o) (diet_h_errno)
libres/lib.a(res_mkquery.o)   libres/lib.a(res_query.o) (diet_res_mkquery)

Allocating common symbols
Common symbol       size              file

bb_common_bufsiz1   0x400             libbb/lib.a(common_bufsiz.o)
_diet_res           0x278             libres/lib.a(dnscruft3.o)
applet_name         0x8               libbb/lib.a(appletlib.o)
ash_ptr_to_globals_memstack
                    0x8               shell/lib.a(ash_ptr_hack.o)
ash_ptr_to_globals_misc
                    0x8               shell/lib.a(ash_ptr_hack.o)
ash_ptr_to_globals_var
                    0x8               shell/lib.a(ash_ptr_hack.o)
bb_errno            0x8               libbb/lib.a(ptr_to_globals.o)
die_func            0x8               libbb/lib.a(xfunc_die.o)
global_crc32_table  0x8               libbb/lib.a(crc32.o)
lineedit_ptr_to_statics
                    0x8               libbb/lib.a(lineedit_ptr_hack.o)
ptr_to_globals      0x8               libbb/lib.a(ptr_to_globals.o)
test_ptr_to_statics
                    0x8               coreutils/lib.a(test_ptr_hack.o)
lock                0x28              dowork/lib.a(dowork.o)
diet_h_errno        0x4               libres/lib.a(h_errno.o)
option_mask32       0x4               libbb/lib.a(getopt32.o)
servaddr            0x6e              dowork/lib.a(dowork.o)
bb_got_signal       0x1               libbb/lib.a(signals.o)
unicode_status      0x1               libbb/lib.a(unicode.o)

Discarded input sections

 .note.GNU-stack
                0x0000000000000000        0x0 /home/pangbai/tmp/ndk/x86_64/sysroot//usr/lib/x86_64-linux-android/24/crtbegin_dynamic.o
 .text          0x0000000000000000        0x0 applets/built-in.o
 .note.GNU-stack
                0x0000000000000000        0x0 applets/built-in.o
 .text          0x0000000000000000        0x0 libbb/lib.a(appletlib.o)
 .note.GNU-stack
                0x0000000000000000        0x0 libbb/lib.a(appletlib.o)
 .text          0x0000000000000000        0x0 libbb/lib.a(compare_string_array.o)
 .text.index_in_str_array
                0x0000000000000000       0x3f libbb/lib.a(compare_string_array.o)
 .note.GNU-stack
                0x0000000000000000        0x0 libbb/lib.a(compare_string_array.o)
 .text          0x0000000000000000        0x0 libbb/lib.a(concat_path_file.o)
 .note.GNU-stack
                0x0000000000000000        0x0 libbb/lib.a(concat_path_file.o)
 .text          0x0000000000000000        0x0 libbb/lib.a(default_error_retval.o)
 .note.GNU-stack
                0x0000000000000000        0x0 libbb/lib.a(default_error_retval.o)
 .text          0x0000000000000000        0x0 libbb/lib.a(get_last_path_component.o)
 .note.GNU-stack
                0x0000000000000000        0x0 libbb/lib.a(get_last_path_component.o)
 .text          0x0000000000000000        0x0 libbb/lib.a(last_char_is.o)
 .note.GNU-stack
                0x0000000000000000        0x0 libbb/lib.a(last_char_is.o)
 .text          0x0000000000000000        0x0 libbb/lib.a(messages.o)
 .rodata.bb_msg_you_must_be_root
                0x0000000000000000       0x11 libbb/lib.a(messages.o)
 .note.GNU-stack
                0x0000000000000000        0x0 libbb/lib.a(messages.o)
 .text          0x0000000000000000        0x0 libbb/lib.a(perror_msg.o)
 .note.GNU-stack
                0x0000000000000000        0x0 libbb/lib.a(perror_msg.o)
 .text          0x0000000000000000        0x0 libbb/lib.a(ptr_to_globals.o)
 .note.GNU-stack
                0x0000000000000000        0x0 libbb/lib.a(ptr_to_globals.o)
 .text          0x0000000000000000        0x0 libbb/lib.a(verror_msg.o)
 .note.GNU-stack
                0x0000000000000000        0x0 libbb/lib.a(verror_msg.o)
 .text          0x0000000000000000        0x0 libbb/lib.a(vfork_daemon_rexec.o)
 .text.xspawn   0x0000000000000000       0x17 libbb/lib.a(vfork_daemon_rexec.o)
 .text.bb_daemonize_or_rexec
                0x0000000000000000       0xc5 libbb/lib.a(vfork_daemon_rexec.o)
 .text.bb_sanitize_stdio
                0x0000000000000000        0x8 libbb/lib.a(vfork_daemon_rexec.o)
 .rodata.str1.1
                0x0000000000000000        0xc libbb/lib.a(vfork_daemon_rexec.o)
 .note.GNU-stack
                0x0000000000000000        0x0 libbb/lib.a(vfork_daemon_rexec.o)
 .text          0x0000000000000000        0x0 libbb/lib.a(xfunc_die.o)
 .note.GNU-stack
                0x0000000000000000        0x0 libbb/lib.a(xfunc_die.o)
 .text          0x0000000000000000        0x0 libbb/lib.a(xfuncs.o)
 .text.hex2bin  0x0000000000000000       0xdf libbb/lib.a(xfuncs.o)
 .note.GNU-stack
                0x0000000000000000        0x0 libbb/lib.a(xfuncs.o)
 .text          0x0000000000000000        0x0 libbb/lib.a(xfuncs_printf.o)
 .text.xopen_nonblocking
                0x0000000000000000        0xa libbb/lib.a(xfuncs_printf.o)
 .text.xopen_as_uid_gid
                0x0000000000000000       0x61 libbb/lib.a(xfuncs_printf.o)
 .text.xsetegid
                0x0000000000000000       0x18 libbb/lib.a(xfuncs_printf.o)
 .text.xseteuid
                0x0000000000000000       0x18 libbb/lib.a(xfuncs_printf.o)
 .text.rename_or_warn
                0x0000000000000000       0x30 libbb/lib.a(xfuncs_printf.o)
 .text.xwrite_str
                0x0000000000000000       0x23 libbb/lib.a(xfuncs_printf.o)
 .text.xprint_and_close_file
                0x0000000000000000       0x2f libbb/lib.a(xfuncs_printf.o)
 .text.xsetenv  0x0000000000000000       0x14 libbb/lib.a(xfuncs_printf.o)
 .text.bb_unsetenv
                0x0000000000000000       0x6e libbb/lib.a(xfuncs_printf.o)
 .text.bb_unsetenv_and_free
                0x0000000000000000       0x12 libbb/lib.a(xfuncs_printf.o)
 .text.xsetgid  0x0000000000000000       0x18 libbb/lib.a(xfuncs_printf.o)
 .text.xsetuid  0x0000000000000000       0x18 libbb/lib.a(xfuncs_printf.o)
 .text.xfchdir  0x0000000000000000       0x18 libbb/lib.a(xfuncs_printf.o)
 .text.xlisten  0x0000000000000000       0x18 libbb/lib.a(xfuncs_printf.o)
 .text.ioctl_or_perror_and_die
                0x0000000000000000       0xab libbb/lib.a(xfuncs_printf.o)
 .text.ioctl_or_perror
                0x0000000000000000       0xac libbb/lib.a(xfuncs_printf.o)
 .text.bb_ioctl_or_warn
                0x0000000000000000       0x2b libbb/lib.a(xfuncs_printf.o)
 .text.bb_xioctl
                0x0000000000000000       0x20 libbb/lib.a(xfuncs_printf.o)
 .text.generate_uuid
                0x0000000000000000       0x72 libbb/lib.a(xfuncs_printf.o)
 .text.xvfork_parent_waits_and_exits
                0x0000000000000000       0x40 libbb/lib.a(xfuncs_printf.o)
 .text.xsettimeofday
                0x0000000000000000       0x1a libbb/lib.a(xfuncs_printf.o)
 .note.GNU-stack
                0x0000000000000000        0x0 libbb/lib.a(xfuncs_printf.o)
 .text          0x0000000000000000        0x0 libbb/lib.a(xreadlink.o)
 .note.GNU-stack
                0x0000000000000000        0x0 libbb/lib.a(xreadlink.o)
 .text          0x0000000000000000        0x0 libbb/lib.a(copyfd.o)
 .note.GNU-stack
                0x0000000000000000        0x0 libbb/lib.a(copyfd.o)
 .text          0x0000000000000000        0x0 libbb/lib.a(full_write.o)
 .note.GNU-stack
                0x0000000000000000        0x0 libbb/lib.a(full_write.o)
 .text          0x0000000000000000        0x0 libbb/lib.a(getopt32.o)
 .note.GNU-stack
                0x0000000000000000        0x0 libbb/lib.a(getopt32.o)
 .text          0x0000000000000000        0x0 libbb/lib.a(llist.o)
 .text.llist_unlink
                0x0000000000000000       0x1c libbb/lib.a(llist.o)
 .text.llist_find_str
                0x0000000000000000       0x2f libbb/lib.a(llist.o)
 .note.GNU-stack
                0x0000000000000000        0x0 libbb/lib.a(llist.o)
 .text          0x0000000000000000        0x0 libbb/lib.a(read.o)
 .note.GNU-stack
                0x0000000000000000        0x0 libbb/lib.a(read.o)
 .text          0x0000000000000000        0x0 libbb/lib.a(safe_strncpy.o)
 .note.GNU-stack
                0x0000000000000000        0x0 libbb/lib.a(safe_strncpy.o)
 .text          0x0000000000000000        0x0 libbb/lib.a(safe_write.o)
 .note.GNU-stack
                0x0000000000000000        0x0 libbb/lib.a(safe_write.o)
 .text          0x0000000000000000        0x0 libbb/lib.a(signals.o)
 .text.record_signo
                0x0000000000000000        0x8 libbb/lib.a(signals.o)
 .text.bb_signals
                0x0000000000000000       0x39 libbb/lib.a(signals.o)
 .text.bb_signals_norestart
                0x0000000000000000       0x4c libbb/lib.a(signals.o)
 .text.sig_block
                0x0000000000000000       0x2f libbb/lib.a(signals.o)
 .text.sig_unblock
                0x0000000000000000       0x30 libbb/lib.a(signals.o)
 .text.wait_for_any_sig
                0x0000000000000000       0x20 libbb/lib.a(signals.o)
 .text.kill_myself_with_sig
                0x0000000000000000       0x25 libbb/lib.a(signals.o)
 .text.signal_no_SA_RESTART_empty_mask
                0x0000000000000000       0x22 libbb/lib.a(signals.o)
 .note.GNU-stack
                0x0000000000000000        0x0 libbb/lib.a(signals.o)
 .text          0x0000000000000000        0x0 libbb/lib.a(time.o)
 .text.strftime_YYYYMMDDHHMMSS
                0x0000000000000000        0xc libbb/lib.a(time.o)
 .text.monotonic_ns
                0x0000000000000000       0x28 libbb/lib.a(time.o)
 .note.GNU-stack
                0x0000000000000000        0x0 libbb/lib.a(time.o)
 .text          0x0000000000000000        0x0 libbb/lib.a(xatonum.o)
 .text.xstrtoull_range
                0x0000000000000000        0x8 libbb/lib.a(xatonum.o)
 .text.xstrtoull_sfx
                0x0000000000000000        0xd libbb/lib.a(xatonum.o)
 .text.xstrtoull
                0x0000000000000000        0xd libbb/lib.a(xatonum.o)
 .text.xstrtoll_range_sfx
                0x0000000000000000       0x74 libbb/lib.a(xatonum.o)
 .text.xstrtoll_range
                0x0000000000000000        0x8 libbb/lib.a(xatonum.o)
 .text.xstrtoll
                0x0000000000000000       0x16 libbb/lib.a(xatonum.o)
 .text.xatoll_range_sfx
                0x0000000000000000       0x11 libbb/lib.a(xatonum.o)
 .text.xatoll_range
                0x0000000000000000       0x11 libbb/lib.a(xatonum.o)
 .text.xatoll_sfx
                0x0000000000000000       0x19 libbb/lib.a(xatonum.o)
 .text.xatoll   0x0000000000000000       0x19 libbb/lib.a(xatonum.o)
 .text.xstrtou_sfx
                0x0000000000000000        0xd libbb/lib.a(xatonum.o)
 .text.xstrtou  0x0000000000000000        0xd libbb/lib.a(xatonum.o)
 .text.xatou_range_sfx
                0x0000000000000000        0xf libbb/lib.a(xatonum.o)
 .text.xstrtoi_range
                0x0000000000000000        0x8 libbb/lib.a(xatonum.o)
 .text.xstrtoi  0x0000000000000000       0x12 libbb/lib.a(xatonum.o)
 .text.xatoi_range_sfx
                0x0000000000000000        0xf libbb/lib.a(xatonum.o)
 .text.xatoi_range
                0x0000000000000000        0xf libbb/lib.a(xatonum.o)
 .text.xatoi_sfx
                0x0000000000000000       0x15 libbb/lib.a(xatonum.o)
 .note.GNU-stack
                0x0000000000000000        0x0 libbb/lib.a(xatonum.o)
 .text          0x0000000000000000        0x0 libbb/lib.a(xgetcwd.o)
 .note.GNU-stack
                0x0000000000000000        0x0 libbb/lib.a(xgetcwd.o)
 .text          0x0000000000000000        0x0 libbb/lib.a(bb_strtonum.o)
 .note.GNU-stack
                0x0000000000000000        0x0 libbb/lib.a(bb_strtonum.o)
 .text          0x0000000000000000        0x0 miscutils/lib.a(readahead.o)
 .note.GNU-stack
                0x0000000000000000        0x0 miscutils/lib.a(readahead.o)
 .text          0x0000000000000000        0x0 networking/lib.a(nslookup.o)
 .note.GNU-stack
                0x0000000000000000        0x0 networking/lib.a(nslookup.o)
 .text          0x0000000000000000        0x0 networking/lib.a(ping.o)
 .note.GNU-stack
                0x0000000000000000        0x0 networking/lib.a(ping.o)
 .text          0x0000000000000000        0x0 networking/lib.a(wget.o)
 .note.GNU-stack
                0x0000000000000000        0x0 networking/lib.a(wget.o)
 .text          0x0000000000000000        0x0 networking/lib.a(parse_pasv_epsv.o)
 .note.GNU-stack
                0x0000000000000000        0x0 networking/lib.a(parse_pasv_epsv.o)
 .text          0x0000000000000000        0x0 networking/lib.a(tls.o)
 .note.GNU-stack
                0x0000000000000000        0x0 networking/lib.a(tls.o)
 .text          0x0000000000000000        0x0 networking/lib.a(tls_aes.o)
 .note.GNU-stack
                0x0000000000000000        0x0 networking/lib.a(tls_aes.o)
 .text          0x0000000000000000        0x0 networking/lib.a(tls_aesgcm.o)
 .note.GNU-stack
                0x0000000000000000        0x0 networking/lib.a(tls_aesgcm.o)
 .text          0x0000000000000000        0x0 networking/lib.a(tls_fe.o)
 .note.GNU-stack
                0x0000000000000000        0x0 networking/lib.a(tls_fe.o)
 .text          0x0000000000000000        0x0 networking/lib.a(tls_pstm.o)
 .note.GNU-stack
                0x0000000000000000        0x0 networking/lib.a(tls_pstm.o)
 .text          0x0000000000000000        0x0 networking/lib.a(tls_pstm_montgomery_reduce.o)
 .note.GNU-stack
                0x0000000000000000        0x0 networking/lib.a(tls_pstm_montgomery_reduce.o)
 .text          0x0000000000000000        0x0 networking/lib.a(tls_pstm_mul_comba.o)
 .note.GNU-stack
                0x0000000000000000        0x0 networking/lib.a(tls_pstm_mul_comba.o)
 .text          0x0000000000000000        0x0 networking/lib.a(tls_pstm_sqr_comba.o)
 .note.GNU-stack
                0x0000000000000000        0x0 networking/lib.a(tls_pstm_sqr_comba.o)
 .text          0x0000000000000000        0x0 networking/lib.a(tls_rsa.o)
 .note.GNU-stack
                0x0000000000000000        0x0 networking/lib.a(tls_rsa.o)
 .text          0x0000000000000000        0x0 networking/lib.a(tls_sp_c32.o)
 .note.GNU-stack
                0x0000000000000000        0x0 networking/lib.a(tls_sp_c32.o)
 .text          0x0000000000000000        0x0 procps/lib.a(kill.o)
 .note.GNU-stack
                0x0000000000000000        0x0 procps/lib.a(kill.o)
 .text          0x0000000000000000        0x0 procps/lib.a(lsof.o)
 .note.GNU-stack
                0x0000000000000000        0x0 procps/lib.a(lsof.o)
 .text          0x0000000000000000        0x0 shell/lib.a(ash.o)
 .rodata.cst16  0x0000000000000000       0x10 shell/lib.a(ash.o)
 .note.GNU-stack
                0x0000000000000000        0x0 shell/lib.a(ash.o)
 .text          0x0000000000000000        0x0 shell/lib.a(ash_ptr_hack.o)
 .note.GNU-stack
                0x0000000000000000        0x0 shell/lib.a(ash_ptr_hack.o)
 .text          0x0000000000000000        0x0 shell/lib.a(cttyhack.o)
 .note.GNU-stack
                0x0000000000000000        0x0 shell/lib.a(cttyhack.o)
 .text          0x0000000000000000        0x0 shell/lib.a(math.o)
 .note.GNU-stack
                0x0000000000000000        0x0 shell/lib.a(math.o)
 .text          0x0000000000000000        0x0 shell/lib.a(random.o)
 .note.GNU-stack
                0x0000000000000000        0x0 shell/lib.a(random.o)
 .text          0x0000000000000000        0x0 shell/lib.a(shell_common.o)
 .note.GNU-stack
                0x0000000000000000        0x0 shell/lib.a(shell_common.o)
 .text          0x0000000000000000        0x0 dowork/lib.a(dowork.o)
 .note.GNU-stack
                0x0000000000000000        0x0 dowork/lib.a(dowork.o)
 .text          0x0000000000000000        0x0 archival/lib.a(ar.o)
 .note.GNU-stack
                0x0000000000000000        0x0 archival/lib.a(ar.o)
 .text          0x0000000000000000        0x0 archival/lib.a(bbunzip.o)
 .note.GNU-stack
                0x0000000000000000        0x0 archival/lib.a(bbunzip.o)
 .text          0x0000000000000000        0x0 archival/lib.a(bzip2.o)
 .note.GNU-stack
                0x0000000000000000        0x0 archival/lib.a(bzip2.o)
 .text          0x0000000000000000        0x0 archival/lib.a(cpio.o)
 .note.GNU-stack
                0x0000000000000000        0x0 archival/lib.a(cpio.o)
 .text          0x0000000000000000        0x0 archival/lib.a(dpkg.o)
 .note.GNU-stack
                0x0000000000000000        0x0 archival/lib.a(dpkg.o)
 .text          0x0000000000000000        0x0 archival/lib.a(dpkg_deb.o)
 .note.GNU-stack
                0x0000000000000000        0x0 archival/lib.a(dpkg_deb.o)
 .text          0x0000000000000000        0x0 archival/lib.a(gzip.o)
 .note.GNU-stack
                0x0000000000000000        0x0 archival/lib.a(gzip.o)
 .text          0x0000000000000000        0x0 archival/lib.a(rpm.o)
 .note.GNU-stack
                0x0000000000000000        0x0 archival/lib.a(rpm.o)
 .text          0x0000000000000000        0x0 archival/lib.a(tar.o)
 .note.GNU-stack
                0x0000000000000000        0x0 archival/lib.a(tar.o)
 .text          0x0000000000000000        0x0 archival/lib.a(unzip.o)
 .note.GNU-stack
                0x0000000000000000        0x0 archival/lib.a(unzip.o)
 .text          0x0000000000000000        0x0 archival/lib.a(chksum_and_xwrite_tar_header.o)
 .note.GNU-stack
                0x0000000000000000        0x0 archival/lib.a(chksum_and_xwrite_tar_header.o)
 .text          0x0000000000000000        0x0 archival/libarchive/lib.a(common.o)
 .note.GNU-stack
                0x0000000000000000        0x0 archival/libarchive/lib.a(common.o)
 .text          0x0000000000000000        0x0 archival/libarchive/lib.a(data_extract_all.o)
 .note.GNU-stack
                0x0000000000000000        0x0 archival/libarchive/lib.a(data_extract_all.o)
 .text          0x0000000000000000        0x0 archival/libarchive/lib.a(data_extract_to_command.o)
 .note.GNU-stack
                0x0000000000000000        0x0 archival/libarchive/lib.a(data_extract_to_command.o)
 .text          0x0000000000000000        0x0 archival/libarchive/lib.a(data_extract_to_stdout.o)
 .note.GNU-stack
                0x0000000000000000        0x0 archival/libarchive/lib.a(data_extract_to_stdout.o)
 .text          0x0000000000000000        0x0 archival/libarchive/lib.a(data_skip.o)
 .note.GNU-stack
                0x0000000000000000        0x0 archival/libarchive/lib.a(data_skip.o)
 .text          0x0000000000000000        0x0 archival/libarchive/lib.a(decompress_bunzip2.o)
 .note.GNU-stack
                0x0000000000000000        0x0 archival/libarchive/lib.a(decompress_bunzip2.o)
 .text          0x0000000000000000        0x0 archival/libarchive/lib.a(decompress_gunzip.o)
 .bss.bsize     0x0000000000000000        0x4 archival/libarchive/lib.a(decompress_gunzip.o)
 .note.GNU-stack
                0x0000000000000000        0x0 archival/libarchive/lib.a(decompress_gunzip.o)
 .text          0x0000000000000000        0x0 archival/libarchive/lib.a(decompress_uncompress.o)
 .note.GNU-stack
                0x0000000000000000        0x0 archival/libarchive/lib.a(decompress_uncompress.o)
 .text          0x0000000000000000        0x0 archival/libarchive/lib.a(decompress_unlzma.o)
 .note.GNU-stack
                0x0000000000000000        0x0 archival/libarchive/lib.a(decompress_unlzma.o)
 .text          0x0000000000000000        0x0 archival/libarchive/lib.a(decompress_unxz.o)
 .note.GNU-stack
                0x0000000000000000        0x0 archival/libarchive/lib.a(decompress_unxz.o)
 .text          0x0000000000000000        0x0 archival/libarchive/lib.a(filter_accept_list.o)
 .note.GNU-stack
                0x0000000000000000        0x0 archival/libarchive/lib.a(filter_accept_list.o)
 .text          0x0000000000000000        0x0 archival/libarchive/lib.a(filter_accept_list_reassign.o)
 .note.GNU-stack
                0x0000000000000000        0x0 archival/libarchive/lib.a(filter_accept_list_reassign.o)
 .text          0x0000000000000000        0x0 archival/libarchive/lib.a(filter_accept_reject_list.o)
 .note.GNU-stack
                0x0000000000000000        0x0 archival/libarchive/lib.a(filter_accept_reject_list.o)
 .text          0x0000000000000000        0x0 archival/libarchive/lib.a(find_list_entry.o)
 .note.GNU-stack
                0x0000000000000000        0x0 archival/libarchive/lib.a(find_list_entry.o)
 .text          0x0000000000000000        0x0 archival/libarchive/lib.a(get_header_cpio.o)
 .note.GNU-stack
                0x0000000000000000        0x0 archival/libarchive/lib.a(get_header_cpio.o)
 .text          0x0000000000000000        0x0 archival/libarchive/lib.a(get_header_tar.o)
 .note.GNU-stack
                0x0000000000000000        0x0 archival/libarchive/lib.a(get_header_tar.o)
 .text          0x0000000000000000        0x0 archival/libarchive/lib.a(get_header_tar_bz2.o)
 .note.GNU-stack
                0x0000000000000000        0x0 archival/libarchive/lib.a(get_header_tar_bz2.o)
 .text          0x0000000000000000        0x0 archival/libarchive/lib.a(get_header_tar_gz.o)
 .note.GNU-stack
                0x0000000000000000        0x0 archival/libarchive/lib.a(get_header_tar_gz.o)
 .text          0x0000000000000000        0x0 archival/libarchive/lib.a(get_header_tar_lzma.o)
 .note.GNU-stack
                0x0000000000000000        0x0 archival/libarchive/lib.a(get_header_tar_lzma.o)
 .text          0x0000000000000000        0x0 archival/libarchive/lib.a(get_header_tar_xz.o)
 .note.GNU-stack
                0x0000000000000000        0x0 archival/libarchive/lib.a(get_header_tar_xz.o)
 .text          0x0000000000000000        0x0 archival/libarchive/lib.a(header_list.o)
 .note.GNU-stack
                0x0000000000000000        0x0 archival/libarchive/lib.a(header_list.o)
 .text          0x0000000000000000        0x0 archival/libarchive/lib.a(header_verbose_list.o)
 .note.GNU-stack
                0x0000000000000000        0x0 archival/libarchive/lib.a(header_verbose_list.o)
 .text          0x0000000000000000        0x0 archival/libarchive/lib.a(init_handle.o)
 .note.GNU-stack
                0x0000000000000000        0x0 archival/libarchive/lib.a(init_handle.o)
 .text          0x0000000000000000        0x0 archival/libarchive/lib.a(open_transformer.o)
 .text.xmalloc_open_zipped_read_close
                0x0000000000000000       0xbf archival/libarchive/lib.a(open_transformer.o)
 .note.GNU-stack
                0x0000000000000000        0x0 archival/libarchive/lib.a(open_transformer.o)
 .text          0x0000000000000000        0x0 archival/libarchive/lib.a(seek_by_jump.o)
 .note.GNU-stack
                0x0000000000000000        0x0 archival/libarchive/lib.a(seek_by_jump.o)
 .text          0x0000000000000000        0x0 archival/libarchive/lib.a(seek_by_read.o)
 .note.GNU-stack
                0x0000000000000000        0x0 archival/libarchive/lib.a(seek_by_read.o)
 .text          0x0000000000000000        0x0 archival/libarchive/lib.a(unpack_ar_archive.o)
 .note.GNU-stack
                0x0000000000000000        0x0 archival/libarchive/lib.a(unpack_ar_archive.o)
 .text          0x0000000000000000        0x0 archival/libarchive/lib.a(unsafe_prefix.o)
 .note.GNU-stack
                0x0000000000000000        0x0 archival/libarchive/lib.a(unsafe_prefix.o)
 .text          0x0000000000000000        0x0 archival/libarchive/lib.a(unsafe_symlink_target.o)
 .note.GNU-stack
                0x0000000000000000        0x0 archival/libarchive/lib.a(unsafe_symlink_target.o)
 .text          0x0000000000000000        0x0 archival/libarchive/lib.a(data_align.o)
 .note.GNU-stack
                0x0000000000000000        0x0 archival/libarchive/lib.a(data_align.o)
 .text          0x0000000000000000        0x0 archival/libarchive/lib.a(filter_accept_all.o)
 .note.GNU-stack
                0x0000000000000000        0x0 archival/libarchive/lib.a(filter_accept_all.o)
 .text          0x0000000000000000        0x0 archival/libarchive/lib.a(get_header_ar.o)
 .note.GNU-stack
                0x0000000000000000        0x0 archival/libarchive/lib.a(get_header_ar.o)
 .text          0x0000000000000000        0x0 archival/libarchive/lib.a(header_skip.o)
 .note.GNU-stack
                0x0000000000000000        0x0 archival/libarchive/lib.a(header_skip.o)
 .text          0x0000000000000000        0x0 console-tools/lib.a(clear.o)
 .note.GNU-stack
                0x0000000000000000        0x0 console-tools/lib.a(clear.o)
 .text          0x0000000000000000        0x0 coreutils/lib.a(cat.o)
 .note.GNU-stack
                0x0000000000000000        0x0 coreutils/lib.a(cat.o)
 .text          0x0000000000000000        0x0 coreutils/lib.a(chgrp.o)
 .note.GNU-stack
                0x0000000000000000        0x0 coreutils/lib.a(chgrp.o)
 .text          0x0000000000000000        0x0 coreutils/lib.a(chmod.o)
 .note.GNU-stack
                0x0000000000000000        0x0 coreutils/lib.a(chmod.o)
 .text          0x0000000000000000        0x0 coreutils/lib.a(chown.o)
 .note.GNU-stack
                0x0000000000000000        0x0 coreutils/lib.a(chown.o)
 .text          0x0000000000000000        0x0 coreutils/lib.a(chroot.o)
 .note.GNU-stack
                0x0000000000000000        0x0 coreutils/lib.a(chroot.o)
 .text          0x0000000000000000        0x0 coreutils/lib.a(cksum.o)
 .note.GNU-stack
                0x0000000000000000        0x0 coreutils/lib.a(cksum.o)
 .text          0x0000000000000000        0x0 coreutils/lib.a(comm.o)
 .note.GNU-stack
                0x0000000000000000        0x0 coreutils/lib.a(comm.o)
 .text          0x0000000000000000        0x0 coreutils/lib.a(cp.o)
 .note.GNU-stack
                0x0000000000000000        0x0 coreutils/lib.a(cp.o)
 .text          0x0000000000000000        0x0 coreutils/lib.a(cut.o)
 .rodata.cst16  0x0000000000000000       0x10 coreutils/lib.a(cut.o)
 .note.GNU-stack
                0x0000000000000000        0x0 coreutils/lib.a(cut.o)
 .text          0x0000000000000000        0x0 coreutils/lib.a(date.o)
 .note.GNU-stack
                0x0000000000000000        0x0 coreutils/lib.a(date.o)
 .text          0x0000000000000000        0x0 coreutils/lib.a(dd.o)
 .note.GNU-stack
                0x0000000000000000        0x0 coreutils/lib.a(dd.o)
 .text          0x0000000000000000        0x0 coreutils/lib.a(df.o)
 .note.GNU-stack
                0x0000000000000000        0x0 coreutils/lib.a(df.o)
 .text          0x0000000000000000        0x0 coreutils/lib.a(dirname.o)
 .note.GNU-stack
                0x0000000000000000        0x0 coreutils/lib.a(dirname.o)
 .text          0x0000000000000000        0x0 coreutils/lib.a(dos2unix.o)
 .note.GNU-stack
                0x0000000000000000        0x0 coreutils/lib.a(dos2unix.o)
 .text          0x0000000000000000        0x0 coreutils/lib.a(du.o)
 .note.GNU-stack
                0x0000000000000000        0x0 coreutils/lib.a(du.o)
 .text          0x0000000000000000        0x0 coreutils/lib.a(echo.o)
 .note.GNU-stack
                0x0000000000000000        0x0 coreutils/lib.a(echo.o)
 .text          0x0000000000000000        0x0 coreutils/lib.a(env.o)
 .note.GNU-stack
                0x0000000000000000        0x0 coreutils/lib.a(env.o)
 .text          0x0000000000000000        0x0 coreutils/lib.a(expand.o)
 .note.GNU-stack
                0x0000000000000000        0x0 coreutils/lib.a(expand.o)
 .text          0x0000000000000000        0x0 coreutils/lib.a(expr.o)
 .note.GNU-stack
                0x0000000000000000        0x0 coreutils/lib.a(expr.o)
 .text          0x0000000000000000        0x0 coreutils/lib.a(factor.o)
 .note.GNU-stack
                0x0000000000000000        0x0 coreutils/lib.a(factor.o)
 .text          0x0000000000000000        0x0 coreutils/lib.a(fold.o)
 .note.GNU-stack
                0x0000000000000000        0x0 coreutils/lib.a(fold.o)
 .text          0x0000000000000000        0x0 coreutils/lib.a(head.o)
 .note.GNU-stack
                0x0000000000000000        0x0 coreutils/lib.a(head.o)
 .text          0x0000000000000000        0x0 coreutils/lib.a(link.o)
 .note.GNU-stack
                0x0000000000000000        0x0 coreutils/lib.a(link.o)
 .text          0x0000000000000000        0x0 coreutils/lib.a(ln.o)
 .note.GNU-stack
                0x0000000000000000        0x0 coreutils/lib.a(ln.o)
 .text          0x0000000000000000        0x0 coreutils/lib.a(ls.o)
 .note.GNU-stack
                0x0000000000000000        0x0 coreutils/lib.a(ls.o)
 .text          0x0000000000000000        0x0 coreutils/lib.a(md5_sha1_sum.o)
 .note.GNU-stack
                0x0000000000000000        0x0 coreutils/lib.a(md5_sha1_sum.o)
 .text          0x0000000000000000        0x0 coreutils/lib.a(mkdir.o)
 .note.GNU-stack
                0x0000000000000000        0x0 coreutils/lib.a(mkdir.o)
 .text          0x0000000000000000        0x0 coreutils/lib.a(mv.o)
 .note.GNU-stack
                0x0000000000000000        0x0 coreutils/lib.a(mv.o)
 .text          0x0000000000000000        0x0 coreutils/lib.a(nl.o)
 .note.GNU-stack
                0x0000000000000000        0x0 coreutils/lib.a(nl.o)
 .text          0x0000000000000000        0x0 coreutils/lib.a(nohup.o)
 .note.GNU-stack
                0x0000000000000000        0x0 coreutils/lib.a(nohup.o)
 .text          0x0000000000000000        0x0 coreutils/lib.a(printenv.o)
 .note.GNU-stack
                0x0000000000000000        0x0 coreutils/lib.a(printenv.o)
 .text          0x0000000000000000        0x0 coreutils/lib.a(printf.o)
 .note.GNU-stack
                0x0000000000000000        0x0 coreutils/lib.a(printf.o)
 .text          0x0000000000000000        0x0 coreutils/lib.a(pwd.o)
 .note.GNU-stack
                0x0000000000000000        0x0 coreutils/lib.a(pwd.o)
 .text          0x0000000000000000        0x0 coreutils/lib.a(readlink.o)
 .note.GNU-stack
                0x0000000000000000        0x0 coreutils/lib.a(readlink.o)
 .text          0x0000000000000000        0x0 coreutils/lib.a(realpath.o)
 .note.GNU-stack
                0x0000000000000000        0x0 coreutils/lib.a(realpath.o)
 .text          0x0000000000000000        0x0 coreutils/lib.a(rm.o)
 .note.GNU-stack
                0x0000000000000000        0x0 coreutils/lib.a(rm.o)
 .text          0x0000000000000000        0x0 coreutils/lib.a(rmdir.o)
 .note.GNU-stack
                0x0000000000000000        0x0 coreutils/lib.a(rmdir.o)
 .text          0x0000000000000000        0x0 coreutils/lib.a(seq.o)
 .note.GNU-stack
                0x0000000000000000        0x0 coreutils/lib.a(seq.o)
 .text          0x0000000000000000        0x0 coreutils/lib.a(shred.o)
 .note.GNU-stack
                0x0000000000000000        0x0 coreutils/lib.a(shred.o)
 .text          0x0000000000000000        0x0 coreutils/lib.a(shuf.o)
 .note.GNU-stack
                0x0000000000000000        0x0 coreutils/lib.a(shuf.o)
 .text          0x0000000000000000        0x0 coreutils/lib.a(sleep.o)
 .note.GNU-stack
                0x0000000000000000        0x0 coreutils/lib.a(sleep.o)
 .text          0x0000000000000000        0x0 coreutils/lib.a(sort.o)
 .note.GNU-stack
                0x0000000000000000        0x0 coreutils/lib.a(sort.o)
 .text          0x0000000000000000        0x0 coreutils/lib.a(split.o)
 .note.GNU-stack
                0x0000000000000000        0x0 coreutils/lib.a(split.o)
 .text          0x0000000000000000        0x0 coreutils/lib.a(sum.o)
 .note.GNU-stack
                0x0000000000000000        0x0 coreutils/lib.a(sum.o)
 .text          0x0000000000000000        0x0 coreutils/lib.a(tail.o)
 .note.GNU-stack
                0x0000000000000000        0x0 coreutils/lib.a(tail.o)
 .text          0x0000000000000000        0x0 coreutils/lib.a(test.o)
 .note.GNU-stack
                0x0000000000000000        0x0 coreutils/lib.a(test.o)
 .text          0x0000000000000000        0x0 coreutils/lib.a(test_ptr_hack.o)
 .note.GNU-stack
                0x0000000000000000        0x0 coreutils/lib.a(test_ptr_hack.o)
 .text          0x0000000000000000        0x0 coreutils/lib.a(touch.o)
 .note.GNU-stack
                0x0000000000000000        0x0 coreutils/lib.a(touch.o)
 .text          0x0000000000000000        0x0 coreutils/lib.a(tr.o)
 .note.GNU-stack
                0x0000000000000000        0x0 coreutils/lib.a(tr.o)
 .text          0x0000000000000000        0x0 coreutils/lib.a(tsort.o)
 .note.GNU-stack
                0x0000000000000000        0x0 coreutils/lib.a(tsort.o)
 .text          0x0000000000000000        0x0 coreutils/lib.a(tty.o)
 .note.GNU-stack
                0x0000000000000000        0x0 coreutils/lib.a(tty.o)
 .text          0x0000000000000000        0x0 coreutils/lib.a(uname.o)
 .note.GNU-stack
                0x0000000000000000        0x0 coreutils/lib.a(uname.o)
 .text          0x0000000000000000        0x0 coreutils/lib.a(uniq.o)
 .note.GNU-stack
                0x0000000000000000        0x0 coreutils/lib.a(uniq.o)
 .text          0x0000000000000000        0x0 coreutils/lib.a(unlink.o)
 .note.GNU-stack
                0x0000000000000000        0x0 coreutils/lib.a(unlink.o)
 .text          0x0000000000000000        0x0 coreutils/lib.a(usleep.o)
 .note.GNU-stack
                0x0000000000000000        0x0 coreutils/lib.a(usleep.o)
 .text          0x0000000000000000        0x0 coreutils/lib.a(uudecode.o)
 .note.GNU-stack
                0x0000000000000000        0x0 coreutils/lib.a(uudecode.o)
 .text          0x0000000000000000        0x0 coreutils/lib.a(wc.o)
 .note.GNU-stack
                0x0000000000000000        0x0 coreutils/lib.a(wc.o)
 .text          0x0000000000000000        0x0 coreutils/lib.a(whoami.o)
 .note.GNU-stack
                0x0000000000000000        0x0 coreutils/lib.a(whoami.o)
 .text          0x0000000000000000        0x0 coreutils/libcoreutils/lib.a(cp_mv_stat.o)
 .note.GNU-stack
                0x0000000000000000        0x0 coreutils/libcoreutils/lib.a(cp_mv_stat.o)
 .text          0x0000000000000000        0x0 debianutils/lib.a(pipe_progress.o)
 .note.GNU-stack
                0x0000000000000000        0x0 debianutils/lib.a(pipe_progress.o)
 .text          0x0000000000000000        0x0 debianutils/lib.a(run_parts.o)
 .note.GNU-stack
                0x0000000000000000        0x0 debianutils/lib.a(run_parts.o)
 .text          0x0000000000000000        0x0 debianutils/lib.a(which.o)
 .note.GNU-stack
                0x0000000000000000        0x0 debianutils/lib.a(which.o)
 .text          0x0000000000000000        0x0 editors/lib.a(awk.o)
 .note.GNU-stack
                0x0000000000000000        0x0 editors/lib.a(awk.o)
 .text          0x0000000000000000        0x0 editors/lib.a(cmp.o)
 .note.GNU-stack
                0x0000000000000000        0x0 editors/lib.a(cmp.o)
 .text          0x0000000000000000        0x0 editors/lib.a(diff.o)
 .note.GNU-stack
                0x0000000000000000        0x0 editors/lib.a(diff.o)
 .text          0x0000000000000000        0x0 editors/lib.a(ed.o)
 .note.GNU-stack
                0x0000000000000000        0x0 editors/lib.a(ed.o)
 .text          0x0000000000000000        0x0 editors/lib.a(patch.o)
 .note.GNU-stack
                0x0000000000000000        0x0 editors/lib.a(patch.o)
 .text          0x0000000000000000        0x0 editors/lib.a(sed.o)
 .note.GNU-stack
                0x0000000000000000        0x0 editors/lib.a(sed.o)
 .text          0x0000000000000000        0x0 editors/lib.a(vi.o)
 .note.GNU-stack
                0x0000000000000000        0x0 editors/lib.a(vi.o)
 .text          0x0000000000000000        0x0 findutils/lib.a(find.o)
 .note.GNU-stack
                0x0000000000000000        0x0 findutils/lib.a(find.o)
 .text          0x0000000000000000        0x0 findutils/lib.a(grep.o)
 .rodata.cst16  0x0000000000000000       0x10 findutils/lib.a(grep.o)
 .note.GNU-stack
                0x0000000000000000        0x0 findutils/lib.a(grep.o)
 .text          0x0000000000000000        0x0 findutils/lib.a(xargs.o)
 .note.GNU-stack
                0x0000000000000000        0x0 findutils/lib.a(xargs.o)
 .text          0x0000000000000000        0x0 libbb/lib.a(ask_confirmation.o)
 .note.GNU-stack
                0x0000000000000000        0x0 libbb/lib.a(ask_confirmation.o)
 .text          0x0000000000000000        0x0 libbb/lib.a(bb_cat.o)
 .note.GNU-stack
                0x0000000000000000        0x0 libbb/lib.a(bb_cat.o)
 .text          0x0000000000000000        0x0 libbb/lib.a(bb_getgroups.o)
 .note.GNU-stack
                0x0000000000000000        0x0 libbb/lib.a(bb_getgroups.o)
 .text          0x0000000000000000        0x0 libbb/lib.a(bb_pwd.o)
 .text.xgetgrgid
                0x0000000000000000       0x1f libbb/lib.a(bb_pwd.o)
 .text.xgid2group
                0x0000000000000000        0xb libbb/lib.a(bb_pwd.o)
 .note.GNU-stack
                0x0000000000000000        0x0 libbb/lib.a(bb_pwd.o)
 .text          0x0000000000000000        0x0 libbb/lib.a(bb_qsort.o)
 .note.GNU-stack
                0x0000000000000000        0x0 libbb/lib.a(bb_qsort.o)
 .text          0x0000000000000000        0x0 libbb/lib.a(chomp.o)
 .note.GNU-stack
                0x0000000000000000        0x0 libbb/lib.a(chomp.o)
 .text          0x0000000000000000        0x0 libbb/lib.a(common_bufsiz.o)
 .note.GNU-stack
                0x0000000000000000        0x0 libbb/lib.a(common_bufsiz.o)
 .text          0x0000000000000000        0x0 libbb/lib.a(concat_subpath_file.o)
 .note.GNU-stack
                0x0000000000000000        0x0 libbb/lib.a(concat_subpath_file.o)
 .text          0x0000000000000000        0x0 libbb/lib.a(const_hack.o)
 .note.GNU-stack
                0x0000000000000000        0x0 libbb/lib.a(const_hack.o)
 .text          0x0000000000000000        0x0 libbb/lib.a(copy_file.o)
 .note.GNU-stack
                0x0000000000000000        0x0 libbb/lib.a(copy_file.o)
 .text          0x0000000000000000        0x0 libbb/lib.a(crc32.o)
 .note.GNU-stack
                0x0000000000000000        0x0 libbb/lib.a(crc32.o)
 .text          0x0000000000000000        0x0 libbb/lib.a(duration.o)
 .note.GNU-stack
                0x0000000000000000        0x0 libbb/lib.a(duration.o)
 .text          0x0000000000000000        0x0 libbb/lib.a(endofname.o)
 .note.GNU-stack
                0x0000000000000000        0x0 libbb/lib.a(endofname.o)
 .text          0x0000000000000000        0x0 libbb/lib.a(executable.o)
 .text.executable_exists
                0x0000000000000000       0x3d libbb/lib.a(executable.o)
 .note.GNU-stack
                0x0000000000000000        0x0 libbb/lib.a(executable.o)
 .text          0x0000000000000000        0x0 libbb/lib.a(fclose_nonstdin.o)
 .note.GNU-stack
                0x0000000000000000        0x0 libbb/lib.a(fclose_nonstdin.o)
 .text          0x0000000000000000        0x0 libbb/lib.a(fflush_stdout_and_exit.o)
 .note.GNU-stack
                0x0000000000000000        0x0 libbb/lib.a(fflush_stdout_and_exit.o)
 .text          0x0000000000000000        0x0 libbb/lib.a(fgets_str.o)
 .text.xmalloc_fgets_str
                0x0000000000000000        0x9 libbb/lib.a(fgets_str.o)
 .text.xmalloc_fgets_str_len
                0x0000000000000000        0xa libbb/lib.a(fgets_str.o)
 .note.GNU-stack
                0x0000000000000000        0x0 libbb/lib.a(fgets_str.o)
 .text          0x0000000000000000        0x0 libbb/lib.a(find_mount_point.o)
 .note.GNU-stack
                0x0000000000000000        0x0 libbb/lib.a(find_mount_point.o)
 .text          0x0000000000000000        0x0 libbb/lib.a(get_line_from_file.o)
 .note.GNU-stack
                0x0000000000000000        0x0 libbb/lib.a(get_line_from_file.o)
 .text          0x0000000000000000        0x0 libbb/lib.a(get_shell_name.o)
 .note.GNU-stack
                0x0000000000000000        0x0 libbb/lib.a(get_shell_name.o)
 .text          0x0000000000000000        0x0 libbb/lib.a(hash_md5_sha.o)
 .text.sha1_begin
                0x0000000000000000       0x55 libbb/lib.a(hash_md5_sha.o)
 .text.sha3_begin
                0x0000000000000000       0x1c libbb/lib.a(hash_md5_sha.o)
 .text.sha3_hash
                0x0000000000000000       0x62 libbb/lib.a(hash_md5_sha.o)
 .text.sha3_process_block72
                0x0000000000000000      0x176 libbb/lib.a(hash_md5_sha.o)
 .text.sha3_end
                0x0000000000000000       0x52 libbb/lib.a(hash_md5_sha.o)
 .rodata.sha3_process_block72.IOTA_CONST
                0x0000000000000000       0x30 libbb/lib.a(hash_md5_sha.o)
 .rodata.sha3_process_block72.ROT_CONST
                0x0000000000000000       0x18 libbb/lib.a(hash_md5_sha.o)
 .rodata.sha3_process_block72.PI_LANE
                0x0000000000000000       0x18 libbb/lib.a(hash_md5_sha.o)
 .note.GNU-stack
                0x0000000000000000        0x0 libbb/lib.a(hash_md5_sha.o)
 .text          0x0000000000000000        0x0 libbb/lib.a(hash_md5_sha256_x86-64_shaNI.o)
 .note.GNU-stack
                0x0000000000000000        0x0 libbb/lib.a(hash_md5_sha256_x86-64_shaNI.o)
 .text          0x0000000000000000        0x0 libbb/lib.a(hash_md5_sha_x86-64_shaNI.o)
 .note.GNU-stack
                0x0000000000000000        0x0 libbb/lib.a(hash_md5_sha_x86-64_shaNI.o)
 .text.sha1_process_block64_shaNI
                0x0000000000000000      0x1fc libbb/lib.a(hash_md5_sha_x86-64_shaNI.o)
 .rodata.cst16.PSHUFFLE_BYTE_FLIP_MASK
                0x0000000000000000       0x10 libbb/lib.a(hash_md5_sha_x86-64_shaNI.o)
 .text          0x0000000000000000        0x0 libbb/lib.a(human_readable.o)
 .text.smart_ulltoa4
                0x0000000000000000      0x136 libbb/lib.a(human_readable.o)
 .note.GNU-stack
                0x0000000000000000        0x0 libbb/lib.a(human_readable.o)
 .text          0x0000000000000000        0x0 libbb/lib.a(inet_cksum.o)
 .note.GNU-stack
                0x0000000000000000        0x0 libbb/lib.a(inet_cksum.o)
 .text          0x0000000000000000        0x0 libbb/lib.a(inode_hash.o)
 .note.GNU-stack
                0x0000000000000000        0x0 libbb/lib.a(inode_hash.o)
 .text          0x0000000000000000        0x0 libbb/lib.a(isdirectory.o)
 .note.GNU-stack
                0x0000000000000000        0x0 libbb/lib.a(isdirectory.o)
 .text          0x0000000000000000        0x0 libbb/lib.a(isqrt.o)
 .note.GNU-stack
                0x0000000000000000        0x0 libbb/lib.a(isqrt.o)
 .text          0x0000000000000000        0x0 libbb/lib.a(lineedit.o)
 .text.size_from_HISTFILESIZE
                0x0000000000000000       0x31 libbb/lib.a(lineedit.o)
 .note.GNU-stack
                0x0000000000000000        0x0 libbb/lib.a(lineedit.o)
 .text          0x0000000000000000        0x0 libbb/lib.a(lineedit_ptr_hack.o)
 .note.GNU-stack
                0x0000000000000000        0x0 libbb/lib.a(lineedit_ptr_hack.o)
 .text          0x0000000000000000        0x0 libbb/lib.a(make_directory.o)
 .note.GNU-stack
                0x0000000000000000        0x0 libbb/lib.a(make_directory.o)
 .text          0x0000000000000000        0x0 libbb/lib.a(mode_string.o)
 .note.GNU-stack
                0x0000000000000000        0x0 libbb/lib.a(mode_string.o)
 .text          0x0000000000000000        0x0 libbb/lib.a(parse_mode.o)
 .note.GNU-stack
                0x0000000000000000        0x0 libbb/lib.a(parse_mode.o)
 .text          0x0000000000000000        0x0 libbb/lib.a(percent_decode.o)
 .note.GNU-stack
                0x0000000000000000        0x0 libbb/lib.a(percent_decode.o)
 .text          0x0000000000000000        0x0 libbb/lib.a(perror_nomsg_and_die.o)
 .note.GNU-stack
                0x0000000000000000        0x0 libbb/lib.a(perror_nomsg_and_die.o)
 .text          0x0000000000000000        0x0 libbb/lib.a(print_numbered_lines.o)
 .note.GNU-stack
                0x0000000000000000        0x0 libbb/lib.a(print_numbered_lines.o)
 .text          0x0000000000000000        0x0 libbb/lib.a(printable.o)
 .note.GNU-stack
                0x0000000000000000        0x0 libbb/lib.a(printable.o)
 .text          0x0000000000000000        0x0 libbb/lib.a(printable_string.o)
 .note.GNU-stack
                0x0000000000000000        0x0 libbb/lib.a(printable_string.o)
 .text          0x0000000000000000        0x0 libbb/lib.a(process_escape_sequence.o)
 .text.strcpy_and_process_escape_sequences
                0x0000000000000000       0x41 libbb/lib.a(process_escape_sequence.o)
 .note.GNU-stack
                0x0000000000000000        0x0 libbb/lib.a(process_escape_sequence.o)
 .text          0x0000000000000000        0x0 libbb/lib.a(procps.o)
 .text.clear_username_cache
                0x0000000000000000       0x3b libbb/lib.a(procps.o)
 .text.read_cmdline
                0x0000000000000000      0x179 libbb/lib.a(procps.o)
 .note.GNU-stack
                0x0000000000000000        0x0 libbb/lib.a(procps.o)
 .text          0x0000000000000000        0x0 libbb/lib.a(progress.o)
 .note.GNU-stack
                0x0000000000000000        0x0 libbb/lib.a(progress.o)
 .text          0x0000000000000000        0x0 libbb/lib.a(read_key.o)
 .note.GNU-stack
                0x0000000000000000        0x0 libbb/lib.a(read_key.o)
 .text          0x0000000000000000        0x0 libbb/lib.a(read_printf.o)
 .text.xmalloc_xopen_read_close
                0x0000000000000000       0x21 libbb/lib.a(read_printf.o)
 .note.GNU-stack
                0x0000000000000000        0x0 libbb/lib.a(read_printf.o)
 .text          0x0000000000000000        0x0 libbb/lib.a(recursive_action.o)
 .note.GNU-stack
                0x0000000000000000        0x0 libbb/lib.a(recursive_action.o)
 .text          0x0000000000000000        0x0 libbb/lib.a(remove_file.o)
 .note.GNU-stack
                0x0000000000000000        0x0 libbb/lib.a(remove_file.o)
 .text          0x0000000000000000        0x0 libbb/lib.a(replace.o)
 .note.GNU-stack
                0x0000000000000000        0x0 libbb/lib.a(replace.o)
 .text          0x0000000000000000        0x0 libbb/lib.a(safe_gethostname.o)
 .note.GNU-stack
                0x0000000000000000        0x0 libbb/lib.a(safe_gethostname.o)
 .text          0x0000000000000000        0x0 libbb/lib.a(safe_poll.o)
 .note.GNU-stack
                0x0000000000000000        0x0 libbb/lib.a(safe_poll.o)
 .text          0x0000000000000000        0x0 libbb/lib.a(single_argv.o)
 .note.GNU-stack
                0x0000000000000000        0x0 libbb/lib.a(single_argv.o)
 .text          0x0000000000000000        0x0 libbb/lib.a(skip_whitespace.o)
 .text.skip_dev_pfx
                0x0000000000000000       0x19 libbb/lib.a(skip_whitespace.o)
 .rodata.str1.1
                0x0000000000000000        0x6 libbb/lib.a(skip_whitespace.o)
 .note.GNU-stack
                0x0000000000000000        0x0 libbb/lib.a(skip_whitespace.o)
 .text          0x0000000000000000        0x0 libbb/lib.a(str_tolower.o)
 .note.GNU-stack
                0x0000000000000000        0x0 libbb/lib.a(str_tolower.o)
 .text          0x0000000000000000        0x0 libbb/lib.a(sysconf.o)
 .note.GNU-stack
                0x0000000000000000        0x0 libbb/lib.a(sysconf.o)
 .text          0x0000000000000000        0x0 libbb/lib.a(u_signal_names.o)
 .note.GNU-stack
                0x0000000000000000        0x0 libbb/lib.a(u_signal_names.o)
 .text          0x0000000000000000        0x0 libbb/lib.a(unicode.o)
 .text.bb_iswspace
                0x0000000000000000       0x23 libbb/lib.a(unicode.o)
 .text.bb_iswalnum
                0x0000000000000000       0x24 libbb/lib.a(unicode.o)
 .text.bb_iswpunct
                0x0000000000000000       0x26 libbb/lib.a(unicode.o)
 .note.GNU-stack
                0x0000000000000000        0x0 libbb/lib.a(unicode.o)
 .text          0x0000000000000000        0x0 libbb/lib.a(uuencode.o)
 .rodata.bb_uuenc_tbl_std
                0x0000000000000000       0x41 libbb/lib.a(uuencode.o)
 .note.GNU-stack
                0x0000000000000000        0x0 libbb/lib.a(uuencode.o)
 .text          0x0000000000000000        0x0 libbb/lib.a(wfopen.o)
 .text.fopen_for_write
                0x0000000000000000        0xc libbb/lib.a(wfopen.o)
 .text.xfdopen_for_read
                0x0000000000000000        0x7 libbb/lib.a(wfopen.o)
 .note.GNU-stack
                0x0000000000000000        0x0 libbb/lib.a(wfopen.o)
 .text          0x0000000000000000        0x0 libbb/lib.a(wfopen_input.o)
 .note.GNU-stack
                0x0000000000000000        0x0 libbb/lib.a(wfopen_input.o)
 .text          0x0000000000000000        0x0 libbb/lib.a(xconnect.o)
 .text.setsockopt_1
                0x0000000000000000        0x8 libbb/lib.a(xconnect.o)
 .text.setsockopt_reuseaddr
                0x0000000000000000        0x8 libbb/lib.a(xconnect.o)
 .text.setsockopt_keepalive
                0x0000000000000000        0x8 libbb/lib.a(xconnect.o)
 .text.get_sock_lsa
                0x0000000000000000        0xc libbb/lib.a(xconnect.o)
 .text.get_lsa  0x0000000000000000       0x72 libbb/lib.a(xconnect.o)
 .text.get_peer_lsa
                0x0000000000000000        0xc libbb/lib.a(xconnect.o)
 .text.bb_lookup_port
                0x0000000000000000       0x65 libbb/lib.a(xconnect.o)
 .text.get_nport
                0x0000000000000000        0xf libbb/lib.a(xconnect.o)
 .text.host2sockaddr
                0x0000000000000000        0x7 libbb/lib.a(xconnect.o)
 .text.xsocket_type
                0x0000000000000000       0x4b libbb/lib.a(xconnect.o)
 .text.xsocket_stream
                0x0000000000000000        0xa libbb/lib.a(xconnect.o)
 .text.create_and_bind_stream_or_die
                0x0000000000000000        0x8 libbb/lib.a(xconnect.o)
 .text.create_and_bind_or_die
                0x0000000000000000       0x89 libbb/lib.a(xconnect.o)
 .text.create_and_bind_dgram_or_die
                0x0000000000000000        0x8 libbb/lib.a(xconnect.o)
 .text.create_and_connect_stream_or_die
                0x0000000000000000       0x42 libbb/lib.a(xconnect.o)
 .text.xmalloc_sockaddr2host
                0x0000000000000000        0x7 libbb/lib.a(xconnect.o)
 .text.xmalloc_sockaddr2host_noport
                0x0000000000000000        0x8 libbb/lib.a(xconnect.o)
 .note.GNU-stack
                0x0000000000000000        0x0 libbb/lib.a(xconnect.o)
 .text          0x0000000000000000        0x0 libbb/lib.a(xrealloc_vector.o)
 .note.GNU-stack
                0x0000000000000000        0x0 libbb/lib.a(xrealloc_vector.o)
 .text          0x0000000000000000        0x0 libbb/lib.a(xregcomp.o)
 .note.GNU-stack
                0x0000000000000000        0x0 libbb/lib.a(xregcomp.o)
 .text          0x0000000000000000        0x0 libbb/lib.a(auto_string.o)
 .note.GNU-stack
                0x0000000000000000        0x0 libbb/lib.a(auto_string.o)
 .text          0x0000000000000000        0x0 libpwdgrp/lib.a(uidgid_get.o)
 .note.GNU-stack
                0x0000000000000000        0x0 libpwdgrp/lib.a(uidgid_get.o)
 .text          0x0000000000000000        0x0 libres/lib.a(dnscruft3.o)
 .note.GNU-stack
                0x0000000000000000        0x0 libres/lib.a(dnscruft3.o)
 .text          0x0000000000000000        0x0 libres/lib.a(freeaddrinfo.o)
 .note.GNU-stack
                0x0000000000000000        0x0 libres/lib.a(freeaddrinfo.o)
 .text          0x0000000000000000        0x0 libres/lib.a(getaddrinfo.o)
 .rodata.cst16  0x0000000000000000       0x10 libres/lib.a(getaddrinfo.o)
 .note.GNU-stack
                0x0000000000000000        0x0 libres/lib.a(getaddrinfo.o)
 .text          0x0000000000000000        0x0 libres/lib.a(gethostbyname2_r.o)
 .note.GNU-stack
                0x0000000000000000        0x0 libres/lib.a(gethostbyname2_r.o)
 .text          0x0000000000000000        0x0 libres/lib.a(res_init.o)
 .note.GNU-stack
                0x0000000000000000        0x0 libres/lib.a(res_init.o)
 .text          0x0000000000000000        0x0 libres/lib.a(dnscruft.o)
 .note.GNU-stack
                0x0000000000000000        0x0 libres/lib.a(dnscruft.o)
 .text          0x0000000000000000        0x0 libres/lib.a(dnscruft2.o)
 .note.GNU-stack
                0x0000000000000000        0x0 libres/lib.a(dnscruft2.o)
 .text          0x0000000000000000        0x0 libres/lib.a(res_query.o)
 .note.GNU-stack
                0x0000000000000000        0x0 libres/lib.a(res_query.o)
 .text          0x0000000000000000        0x0 libres/lib.a(h_errno.o)
 .note.GNU-stack
                0x0000000000000000        0x0 libres/lib.a(h_errno.o)
 .text          0x0000000000000000        0x0 libres/lib.a(res_mkquery.o)
 .rodata.dnspacket
                0x0000000000000000        0xd libres/lib.a(res_mkquery.o)
 .note.GNU-stack
                0x0000000000000000        0x0 libres/lib.a(res_mkquery.o)
 .text          0x0000000000000000        0x0 /home/pangbai/tmp/ndk/x86_64/sysroot//usr/lib/x86_64-linux-android/24/crtend_android.o
 .note.GNU-stack
                0x0000000000000000        0x0 /home/pangbai/tmp/ndk/x86_64/sysroot//usr/lib/x86_64-linux-android/24/crtend_android.o

Memory map

 ** file header
                0x0000000000000000       0x40
 ** segment headers
                0x0000000000000040      0x1f8

.interp         0x0000000000000238       0x15
 ** fill        0x0000000000000238       0x15

.note.android.ident
                0x000000000000024e       0x98
 .note.android.ident
                0x000000000000024e       0x98 /home/pangbai/tmp/ndk/x86_64/sysroot//usr/lib/x86_64-linux-android/24/crtbegin_dynamic.o

.dynsym         0x00000000000002e8     0x1758
 ** dynsym      0x00000000000002e8     0x1758

.dynstr         0x0000000000001a40      0x7ec
 ** string table
                0x0000000000001a40      0x7ec

.gnu.hash       0x0000000000002230       0x1c
 ** hash        0x0000000000002230       0x1c

.gnu.version    0x000000000000224c      0x1f2
 ** versions    0x000000000000224c      0x1f2

.gnu.version_r  0x0000000000002440       0x50
 ** version refs
                0x0000000000002440       0x50

.rela.dyn       0x0000000000002490     0x1c68
 ** dynamic relocs
                0x0000000000002490     0x1c68

.rela.plt       0x00000000000040f8     0x1548
 ** dynamic relocs
                0x00000000000040f8     0x1548

.plt            0x0000000000005640      0xe40
 ** PLT         0x0000000000005640      0xe40

.text           0x0000000000006480    0x4bd32
 .text.exit_SUCCESS
                0x0000000000006480        0x8 libbb/lib.a(xfuncs.o)
                0x0000000000006480                exit_SUCCESS
 .text.exitreset
                0x0000000000006488       0x46 shell/lib.a(ash.o)
 .text.exitshell
                0x00000000000064ce       0x84 shell/lib.a(ash.o)
 .text.exitcmd  0x0000000000006552       0x34 shell/lib.a(ash.o)
 .text          0x0000000000006590       0x8c /home/pangbai/tmp/ndk/x86_64/sysroot//usr/lib/x86_64-linux-android/24/crtbegin_dynamic.o
                0x00000000000065e0                __atexit_handler_wrapper
                0x0000000000006590                _start
                0x00000000000065f0                atexit
                0x0000000000006610                pthread_atfork
 .text.busybox_main
                0x000000000000661c      0x326 libbb/lib.a(appletlib.o)
                0x000000000000661c                busybox_main
 .text.string_array_len
                0x0000000000006942       0x17 libbb/lib.a(appletlib.o)
                0x0000000000006942                string_array_len
 .text.bb_show_usage
                0x0000000000006959       0xb7 libbb/lib.a(appletlib.o)
                0x0000000000006959                bb_show_usage
 .text.find_applet_by_name
                0x0000000000006a10       0xa5 libbb/lib.a(appletlib.o)
                0x0000000000006a10                find_applet_by_name
 .text.lbb_prepare
                0x0000000000006ab5       0x1c libbb/lib.a(appletlib.o)
                0x0000000000006ab5                lbb_prepare
 .text.run_applet_and_exit
                0x0000000000006ad1       0x63 libbb/lib.a(appletlib.o)
 .text.show_usage_if_dash_dash_help
                0x0000000000006b34       0x2d libbb/lib.a(appletlib.o)
                0x0000000000006b34                show_usage_if_dash_dash_help
 .text.run_applet_no_and_exit
                0x0000000000006b61       0x3c libbb/lib.a(appletlib.o)
                0x0000000000006b61                run_applet_no_and_exit
 .text.main     0x0000000000006b9d       0x59 libbb/lib.a(appletlib.o)
                0x0000000000006b9d                main
 .text.is_prefixed_with
                0x0000000000006bf6       0x1b libbb/lib.a(compare_string_array.o)
                0x0000000000006bf6                is_prefixed_with
 .text.is_suffixed_with
                0x0000000000006c11       0x40 libbb/lib.a(compare_string_array.o)
                0x0000000000006c11                is_suffixed_with
 .text.index_in_strings
                0x0000000000006c51       0x44 libbb/lib.a(compare_string_array.o)
                0x0000000000006c51                index_in_strings
 .text.index_in_substrings
                0x0000000000006c95       0x82 libbb/lib.a(compare_string_array.o)
                0x0000000000006c95                index_in_substrings
 .text.nth_string
                0x0000000000006d17       0x1a libbb/lib.a(compare_string_array.o)
                0x0000000000006d17                nth_string
 .text.concat_path_file
                0x0000000000006d31       0x5b libbb/lib.a(concat_path_file.o)
                0x0000000000006d31                concat_path_file
 .text.bb_basename
                0x0000000000006d8c       0x19 libbb/lib.a(get_last_path_component.o)
                0x0000000000006d8c                bb_basename
 .text.bb_get_last_path_component_nostrip
                0x0000000000006da5       0x27 libbb/lib.a(get_last_path_component.o)
                0x0000000000006da5                bb_get_last_path_component_nostrip
 .text.bb_get_last_path_component_strip
                0x0000000000006dcc       0x2c libbb/lib.a(get_last_path_component.o)
                0x0000000000006dcc                bb_get_last_path_component_strip
 .text.last_char_is
                0x0000000000006df8       0x1f libbb/lib.a(last_char_is.o)
                0x0000000000006df8                last_char_is
 .text.bb_perror_msg
                0x0000000000006e17       0xac libbb/lib.a(perror_msg.o)
                0x0000000000006e17                bb_perror_msg
 .text.bb_perror_msg_and_die
                0x0000000000006ec3       0xa8 libbb/lib.a(perror_msg.o)
                0x0000000000006ec3                bb_perror_msg_and_die
 .text.bb_simple_perror_msg
                0x0000000000006f6b       0x11 libbb/lib.a(perror_msg.o)
                0x0000000000006f6b                bb_simple_perror_msg
 .text.bb_simple_perror_msg_and_die
                0x0000000000006f7c       0x12 libbb/lib.a(perror_msg.o)
                0x0000000000006f7c                bb_simple_perror_msg_and_die
 .text.bb_verror_msg
                0x0000000000006f8e      0x221 libbb/lib.a(verror_msg.o)
                0x0000000000006f8e                bb_verror_msg
 .text.bb_error_msg_and_die
                0x00000000000071af       0x84 libbb/lib.a(verror_msg.o)
                0x00000000000071af                bb_error_msg_and_die
 .text.bb_error_msg
                0x0000000000007233       0x87 libbb/lib.a(verror_msg.o)
                0x0000000000007233                bb_error_msg
 .text.bb_simple_error_msg
                0x00000000000072ba       0x11 libbb/lib.a(verror_msg.o)
                0x00000000000072ba                bb_simple_error_msg
 .text.bb_simple_error_msg_and_die
                0x00000000000072cb       0x12 libbb/lib.a(verror_msg.o)
                0x00000000000072cb                bb_simple_error_msg_and_die
 .text.re_execed_comm
                0x00000000000072dd       0x3a libbb/lib.a(vfork_daemon_rexec.o)
                0x00000000000072dd                re_execed_comm
 .text.set_task_comm
                0x0000000000007317       0x14 libbb/lib.a(vfork_daemon_rexec.o)
                0x0000000000007317                set_task_comm
 .text.run_nofork_applet
                0x000000000000732b      0x17d libbb/lib.a(vfork_daemon_rexec.o)
                0x000000000000732b                run_nofork_applet
 .text.jump     0x00000000000074a8       0x1a libbb/lib.a(vfork_daemon_rexec.o)
 .text.run_noexec_applet_and_exit
                0x00000000000074c2       0x41 libbb/lib.a(vfork_daemon_rexec.o)
                0x00000000000074c2                run_noexec_applet_and_exit
 .text.spawn    0x0000000000007503       0x68 libbb/lib.a(vfork_daemon_rexec.o)
                0x0000000000007503                spawn
 .text.spawn_and_wait
                0x000000000000756b        0xe libbb/lib.a(vfork_daemon_rexec.o)
                0x000000000000756b                spawn_and_wait
 .text.xfunc_die
                0x0000000000007579       0x1b libbb/lib.a(xfunc_die.o)
                0x0000000000007579                xfunc_die
 .text.ndelay_on
                0x0000000000007594       0x34 libbb/lib.a(xfuncs.o)
                0x0000000000007594                ndelay_on
 .text.ndelay_off
                0x00000000000075c8       0x34 libbb/lib.a(xfuncs.o)
                0x00000000000075c8                ndelay_off
 .text.close_on_exec_on
                0x00000000000075fc        0xd libbb/lib.a(xfuncs.o)
                0x00000000000075fc                close_on_exec_on
 .text.strncpy_IFNAMSIZ
                0x0000000000007609        0x8 libbb/lib.a(xfuncs.o)
                0x0000000000007609                strncpy_IFNAMSIZ
 .text.utoa_to_buf
                0x0000000000007611       0x5a libbb/lib.a(xfuncs.o)
                0x0000000000007611                utoa_to_buf
 .text.itoa_to_buf
                0x000000000000766b       0x20 libbb/lib.a(xfuncs.o)
                0x000000000000766b                itoa_to_buf
 .text.utoa     0x000000000000768b       0x1b libbb/lib.a(xfuncs.o)
                0x000000000000768b                utoa
 .text.itoa     0x00000000000076a6       0x1b libbb/lib.a(xfuncs.o)
                0x00000000000076a6                itoa
 .text.bin2hex  0x00000000000076c1       0x44 libbb/lib.a(xfuncs.o)
                0x00000000000076c1                bin2hex
 .text.bb_putchar_stderr
                0x0000000000007705       0x16 libbb/lib.a(xfuncs.o)
                0x0000000000007705                bb_putchar_stderr
 .text.full_write1_str
                0x000000000000771b       0x18 libbb/lib.a(xfuncs.o)
                0x000000000000771b                full_write1_str
 .text.full_write2_str
                0x0000000000007733       0x18 libbb/lib.a(xfuncs.o)
                0x0000000000007733                full_write2_str
 .text.get_terminal_width_height
                0x000000000000774b       0xe8 libbb/lib.a(xfuncs.o)
                0x000000000000774b                get_terminal_width_height
 .text.wh_helper
                0x0000000000007833       0x38 libbb/lib.a(xfuncs.o)
 .text.get_terminal_width
                0x000000000000786b       0x1c libbb/lib.a(xfuncs.o)
                0x000000000000786b                get_terminal_width
 .text.is_TERM_dumb
                0x0000000000007887       0x30 libbb/lib.a(xfuncs.o)
                0x0000000000007887                is_TERM_dumb
 .text.tcsetattr_stdin_TCSANOW
                0x00000000000078b7        0xc libbb/lib.a(xfuncs.o)
                0x00000000000078b7                tcsetattr_stdin_TCSANOW
 .text.get_termios_and_make_raw
                0x00000000000078c3       0x6f libbb/lib.a(xfuncs.o)
                0x00000000000078c3                get_termios_and_make_raw
 .text.set_termios_to_raw
                0x0000000000007932       0x2d libbb/lib.a(xfuncs.o)
                0x0000000000007932                set_termios_to_raw
 .text.safe_waitpid
                0x000000000000795f       0x39 libbb/lib.a(xfuncs.o)
                0x000000000000795f                safe_waitpid
 .text.wait_any_nohang
                0x0000000000007998        0xe libbb/lib.a(xfuncs.o)
                0x0000000000007998                wait_any_nohang
 .text.wait4pid
                0x00000000000079a6       0x45 libbb/lib.a(xfuncs.o)
                0x00000000000079a6                wait4pid
 .text._exit_SUCCESS
                0x00000000000079eb        0x8 libbb/lib.a(xfuncs.o)
                0x00000000000079eb                _exit_SUCCESS
 .text.bb_die_memory_exhausted
                0x00000000000079f3        0xd libbb/lib.a(xfuncs_printf.o)
                0x00000000000079f3                bb_die_memory_exhausted
 .text.malloc_or_warn
                0x0000000000007a00       0x30 libbb/lib.a(xfuncs_printf.o)
                0x0000000000007a00                malloc_or_warn
 .text.xmalloc  0x0000000000007a30       0x1a libbb/lib.a(xfuncs_printf.o)
                0x0000000000007a30                xmalloc
 .text.xrealloc
                0x0000000000007a4a       0x1a libbb/lib.a(xfuncs_printf.o)
                0x0000000000007a4a                xrealloc
 .text.xzalloc  0x0000000000007a64       0x17 libbb/lib.a(xfuncs_printf.o)
                0x0000000000007a64                xzalloc
 .text.xstrdup  0x0000000000007a7b       0x19 libbb/lib.a(xfuncs_printf.o)
                0x0000000000007a7b                xstrdup
 .text.xstrndup
                0x0000000000007a94       0x12 libbb/lib.a(xfuncs_printf.o)
                0x0000000000007a94                xstrndup
 .text.xmemdup  0x0000000000007aa6       0x27 libbb/lib.a(xfuncs_printf.o)
                0x0000000000007aa6                xmemdup
 .text.mmap_read
                0x0000000000007acd       0x13 libbb/lib.a(xfuncs_printf.o)
                0x0000000000007acd                mmap_read
 .text.mmap_anon
                0x0000000000007ae0       0x1a libbb/lib.a(xfuncs_printf.o)
                0x0000000000007ae0                mmap_anon
 .text.xmmap_anon
                0x0000000000007afa       0x13 libbb/lib.a(xfuncs_printf.o)
                0x0000000000007afa                xmmap_anon
 .text.xfopen   0x0000000000007b0d       0x21 libbb/lib.a(xfuncs_printf.o)
                0x0000000000007b0d                xfopen
 .text.xopen3   0x0000000000007b2e       0x22 libbb/lib.a(xfuncs_printf.o)
                0x0000000000007b2e                xopen3
 .text.xopen    0x0000000000007b50        0xa libbb/lib.a(xfuncs_printf.o)
                0x0000000000007b50                xopen
 .text.open3_or_warn
                0x0000000000007b5a       0x2d libbb/lib.a(xfuncs_printf.o)
                0x0000000000007b5a                open3_or_warn
 .text.open_or_warn
                0x0000000000007b87        0xa libbb/lib.a(xfuncs_printf.o)
                0x0000000000007b87                open_or_warn
 .text.xunlink  0x0000000000007b91       0x20 libbb/lib.a(xfuncs_printf.o)
                0x0000000000007b91                xunlink
 .text.xrename  0x0000000000007bb1       0x2f libbb/lib.a(xfuncs_printf.o)
                0x0000000000007bb1                xrename
 .text.xpipe    0x0000000000007be0       0x18 libbb/lib.a(xfuncs_printf.o)
                0x0000000000007be0                xpipe
 .text.xdup2    0x0000000000007bf8       0x1a libbb/lib.a(xfuncs_printf.o)
                0x0000000000007bf8                xdup2
 .text.xmove_fd
                0x0000000000007c12       0x15 libbb/lib.a(xfuncs_printf.o)
                0x0000000000007c12                xmove_fd
 .text.xwrite   0x0000000000007c27       0x2f libbb/lib.a(xfuncs_printf.o)
                0x0000000000007c27                xwrite
 .text.xclose   0x0000000000007c56       0x18 libbb/lib.a(xfuncs_printf.o)
                0x0000000000007c56                xclose
 .text.xlseek   0x0000000000007c6e       0x2d libbb/lib.a(xfuncs_printf.o)
                0x0000000000007c6e                xlseek
 .text.xmkstemp
                0x0000000000007c9b       0x20 libbb/lib.a(xfuncs_printf.o)
                0x0000000000007c9b                xmkstemp
 .text.die_if_ferror
                0x0000000000007cbb       0x20 libbb/lib.a(xfuncs_printf.o)
                0x0000000000007cbb                die_if_ferror
 .text.die_if_ferror_stdout
                0x0000000000007cdb       0x16 libbb/lib.a(xfuncs_printf.o)
                0x0000000000007cdb                die_if_ferror_stdout
 .text.fflush_all
                0x0000000000007cf1        0x7 libbb/lib.a(xfuncs_printf.o)
                0x0000000000007cf1                fflush_all
 .text.bb_putchar
                0x0000000000007cf8        0x5 libbb/lib.a(xfuncs_printf.o)
                0x0000000000007cf8                bb_putchar
 .text.fputs_stdout
                0x0000000000007cfd        0xf libbb/lib.a(xfuncs_printf.o)
                0x0000000000007cfd                fputs_stdout
 .text.xasprintf
                0x0000000000007d0c       0xa3 libbb/lib.a(xfuncs_printf.o)
                0x0000000000007d0c                xasprintf
 .text.chdir_or_warn
                0x0000000000007daf       0x2d libbb/lib.a(xfuncs_printf.o)
                0x0000000000007daf                chdir_or_warn
 .text.xchdir   0x0000000000007ddc       0x11 libbb/lib.a(xfuncs_printf.o)
                0x0000000000007ddc                xchdir
 .text.xchroot  0x0000000000007ded       0x2b libbb/lib.a(xfuncs_printf.o)
                0x0000000000007ded                xchroot
 .text.warn_opendir
                0x0000000000007e18       0x30 libbb/lib.a(xfuncs_printf.o)
                0x0000000000007e18                warn_opendir
 .text.xopendir
                0x0000000000007e48       0x21 libbb/lib.a(xfuncs_printf.o)
                0x0000000000007e48                xopendir
 .text.xsocket  0x0000000000007e69       0x18 libbb/lib.a(xfuncs_printf.o)
                0x0000000000007e69                xsocket
 .text.xbind    0x0000000000007e81       0x18 libbb/lib.a(xfuncs_printf.o)
                0x0000000000007e81                xbind
 .text.xsendto  0x0000000000007e99       0x21 libbb/lib.a(xfuncs_printf.o)
                0x0000000000007e99                xsendto
 .text.xstat    0x0000000000007eba       0x20 libbb/lib.a(xfuncs_printf.o)
                0x0000000000007eba                xstat
 .text.xfstat   0x0000000000007eda       0x17 libbb/lib.a(xfuncs_printf.o)
                0x0000000000007eda                xfstat
 .text.xmalloc_ttyname
                0x0000000000007ef1       0x2a libbb/lib.a(xfuncs_printf.o)
                0x0000000000007ef1                xmalloc_ttyname
 .text.xfork    0x0000000000007f1b       0x18 libbb/lib.a(xfuncs_printf.o)
                0x0000000000007f1b                xfork
 .text.wait_for_exitstatus
                0x0000000000007f33       0x23 libbb/lib.a(xfuncs_printf.o)
                0x0000000000007f33                wait_for_exitstatus
 .text.xgettimeofday
                0x0000000000007f56        0x7 libbb/lib.a(xfuncs_printf.o)
                0x0000000000007f56                xgettimeofday
 .text.xmalloc_readlink
                0x0000000000007f5d       0x53 libbb/lib.a(xreadlink.o)
                0x0000000000007f5d                xmalloc_readlink
 .text.xmalloc_follow_symlinks
                0x0000000000007fb0       0xb9 libbb/lib.a(xreadlink.o)
                0x0000000000007fb0                xmalloc_follow_symlinks
 .text.xmalloc_readlink_or_warn
                0x0000000000008069       0x4f libbb/lib.a(xreadlink.o)
                0x0000000000008069                xmalloc_readlink_or_warn
 .text.xmalloc_realpath
                0x00000000000080b8       0x1f libbb/lib.a(xreadlink.o)
                0x00000000000080b8                xmalloc_realpath
 .text.xmalloc_realpath_coreutils
                0x00000000000080d7      0x174 libbb/lib.a(xreadlink.o)
                0x00000000000080d7                xmalloc_realpath_coreutils
 .text.bb_copyfd_size
                0x000000000000824b        0xc libbb/lib.a(copyfd.o)
                0x000000000000824b                bb_copyfd_size
 .text.bb_full_fd_action
                0x0000000000008257      0x110 libbb/lib.a(copyfd.o)
 .text.bb_copyfd_exact_size
                0x0000000000008367       0x31 libbb/lib.a(copyfd.o)
                0x0000000000008367                bb_copyfd_exact_size
 .text.bb_copyfd_eof
                0x0000000000008398        0x7 libbb/lib.a(copyfd.o)
                0x0000000000008398                bb_copyfd_eof
 .text.full_write
                0x000000000000839f       0x49 libbb/lib.a(full_write.o)
                0x000000000000839f                full_write
 .text.getopt32
                0x00000000000083e8       0x83 libbb/lib.a(getopt32.o)
                0x00000000000083e8                getopt32
 .text.vgetopt32
                0x000000000000846b      0x586 libbb/lib.a(getopt32.o)
 .text.getopt32long
                0x00000000000089f1       0x7d libbb/lib.a(getopt32.o)
                0x00000000000089f1                getopt32long
 .text.llist_add_to
                0x0000000000008a6e       0x27 libbb/lib.a(llist.o)
                0x0000000000008a6e                llist_add_to
 .text.llist_add_to_end
                0x0000000000008a95       0x29 libbb/lib.a(llist.o)
                0x0000000000008a95                llist_add_to_end
 .text.llist_pop
                0x0000000000008abe       0x24 libbb/lib.a(llist.o)
                0x0000000000008abe                llist_pop
 .text.llist_free
                0x0000000000008ae2       0x32 libbb/lib.a(llist.o)
                0x0000000000008ae2                llist_free
 .text.llist_rev
                0x0000000000008b14       0x16 libbb/lib.a(llist.o)
                0x0000000000008b14                llist_rev
 .text.safe_read
                0x0000000000008b2a       0x3f libbb/lib.a(read.o)
                0x0000000000008b2a                safe_read
 .text.full_read
                0x0000000000008b69       0x4b libbb/lib.a(read.o)
                0x0000000000008b69                full_read
 .text.read_close
                0x0000000000008bb4       0x20 libbb/lib.a(read.o)
                0x0000000000008bb4                read_close
 .text.open_read_close
                0x0000000000008bd4       0x35 libbb/lib.a(read.o)
                0x0000000000008bd4                open_read_close
 .text.safe_strncpy
                0x0000000000008c09       0x1e libbb/lib.a(safe_strncpy.o)
                0x0000000000008c09                safe_strncpy
 .text.overlapping_strcpy
                0x0000000000008c27       0x17 libbb/lib.a(safe_strncpy.o)
                0x0000000000008c27                overlapping_strcpy
 .text.safe_write
                0x0000000000008c3e       0x3f libbb/lib.a(safe_write.o)
                0x0000000000008c3e                safe_write
 .text.sigaction_set
                0x0000000000008c7d        0x7 libbb/lib.a(signals.o)
                0x0000000000008c7d                sigaction_set
 .text.sigprocmask_allsigs
                0x0000000000008c84       0x25 libbb/lib.a(signals.o)
                0x0000000000008c84                sigprocmask_allsigs
 .text.sigprocmask2
                0x0000000000008ca9        0x8 libbb/lib.a(signals.o)
                0x0000000000008ca9                sigprocmask2
 .text.signal_SA_RESTART_empty_mask
                0x0000000000008cb1       0x28 libbb/lib.a(signals.o)
                0x0000000000008cb1                signal_SA_RESTART_empty_mask
 .text.parse_datestr
                0x0000000000008cd9      0x4a7 libbb/lib.a(time.o)
                0x0000000000008cd9                parse_datestr
 .text.validate_tm_time
                0x0000000000009180       0x25 libbb/lib.a(time.o)
                0x0000000000009180                validate_tm_time
 .text.strftime_HHMMSS
                0x00000000000091a5        0xc libbb/lib.a(time.o)
                0x00000000000091a5                strftime_HHMMSS
 .text.strftime_fmt
                0x00000000000091b1       0x4b libbb/lib.a(time.o)
 .text.monotonic_us
                0x00000000000091fc       0x21 libbb/lib.a(time.o)
                0x00000000000091fc                monotonic_us
 .text.monotonic_ms
                0x000000000000921d       0x2e libbb/lib.a(time.o)
                0x000000000000921d                monotonic_ms
 .text.monotonic_sec
                0x000000000000924b        0x7 libbb/lib.a(time.o)
                0x000000000000924b                monotonic_sec
 .text.xstrtoull_range_sfx
                0x0000000000009252       0xf9 libbb/lib.a(xatonum.o)
                0x0000000000009252                xstrtoull_range_sfx
 .text.xatoull_range_sfx
                0x000000000000934b       0x11 libbb/lib.a(xatonum.o)
                0x000000000000934b                xatoull_range_sfx
 .text.xatoull_range
                0x000000000000935c       0x11 libbb/lib.a(xatonum.o)
                0x000000000000935c                xatoull_range
 .text.xatoull_sfx
                0x000000000000936d       0x10 libbb/lib.a(xatonum.o)
                0x000000000000936d                xatoull_sfx
 .text.xatoull  0x000000000000937d        0x7 libbb/lib.a(xatonum.o)
                0x000000000000937d                xatoull
 .text.xstrtou_range_sfx
                0x0000000000009384      0x10e libbb/lib.a(xatonum.o)
                0x0000000000009384                xstrtou_range_sfx
 .text.xstrtou_range
                0x0000000000009492        0x8 libbb/lib.a(xatonum.o)
                0x0000000000009492                xstrtou_range
 .text.xatou_range
                0x000000000000949a        0xf libbb/lib.a(xatonum.o)
                0x000000000000949a                xatou_range
 .text.xatou_sfx
                0x00000000000094a9       0x10 libbb/lib.a(xatonum.o)
                0x00000000000094a9                xatou_sfx
 .text.xatou    0x00000000000094b9        0x7 libbb/lib.a(xatonum.o)
                0x00000000000094b9                xatou
 .text.xstrtoi_range_sfx
                0x00000000000094c0       0x67 libbb/lib.a(xatonum.o)
                0x00000000000094c0                xstrtoi_range_sfx
 .text.xatoi    0x0000000000009527       0x15 libbb/lib.a(xatonum.o)
                0x0000000000009527                xatoi
 .text.xatoi_positive
                0x000000000000953c        0xc libbb/lib.a(xatonum.o)
                0x000000000000953c                xatoi_positive
 .text.xatou16  0x0000000000009548        0xf libbb/lib.a(xatonum.o)
                0x0000000000009548                xatou16
 .text.xrealloc_getcwd_or_warn
                0x0000000000009557       0x7e libbb/lib.a(xgetcwd.o)
                0x0000000000009557                xrealloc_getcwd_or_warn
 .text.bb_strtoull
                0x00000000000095d5       0x5b libbb/lib.a(bb_strtonum.o)
                0x00000000000095d5                bb_strtoull
 .text.handle_errors
                0x0000000000009630       0x43 libbb/lib.a(bb_strtonum.o)
 .text.bb_strtoll
                0x0000000000009673       0x62 libbb/lib.a(bb_strtonum.o)
                0x0000000000009673                bb_strtoll
 .text.bb_strtou
                0x00000000000096d5       0x6d libbb/lib.a(bb_strtonum.o)
                0x00000000000096d5                bb_strtou
 .text.bb_strtoi
                0x0000000000009742       0x84 libbb/lib.a(bb_strtonum.o)
                0x0000000000009742                bb_strtoi
 .text.readahead_main
                0x00000000000097c6       0x90 miscutils/lib.a(readahead.o)
                0x00000000000097c6                readahead_main
 .text.nslookup_main
                0x0000000000009856       0x6b networking/lib.a(nslookup.o)
                0x0000000000009856                nslookup_main
 .text.set_default_dns
                0x00000000000098c1       0x30 networking/lib.a(nslookup.o)
 .text.print_host
                0x00000000000098f1       0xe9 networking/lib.a(nslookup.o)
 .text.ping_main
                0x00000000000099da        0x9 networking/lib.a(ping.o)
                0x00000000000099da                ping_main
 .text.common_ping_main
                0x00000000000099e3      0x186 networking/lib.a(ping.o)
 .text.ping     0x0000000000009b69      0x415 networking/lib.a(ping.o)
 .text.print_stats_and_exit
                0x0000000000009f7e       0xfb networking/lib.a(ping.o)
 .text.sendping4
                0x000000000000a079      0x160 networking/lib.a(ping.o)
 .text.wget_main
                0x000000000000a1d9      0xd4c networking/lib.a(wget.o)
                0x000000000000a1d9                wget_main
 .text.alarm_handler
                0x000000000000af25       0x1f networking/lib.a(wget.o)
 .text.parse_url
                0x000000000000af44      0x1b4 networking/lib.a(wget.o)
 .text.spawn_https_helper_openssl
                0x000000000000b0f8      0x222 networking/lib.a(wget.o)
 .text.open_socket
                0x000000000000b31a       0x39 networking/lib.a(wget.o)
 .text.spawn_ssl_client
                0x000000000000b353       0xeb networking/lib.a(wget.o)
 .text.base64enc
                0x000000000000b43e       0x3c networking/lib.a(wget.o)
 .text.fgets_trim_sanitize
                0x000000000000b47a       0xa9 networking/lib.a(wget.o)
 .text.get_sanitized_hdr
                0x000000000000b523       0xa3 networking/lib.a(wget.o)
 .text.reset_beg_range_to_zero
                0x000000000000b5c6       0x29 networking/lib.a(wget.o)
 .text.retrieve_file_data
                0x000000000000b5ef      0x2d9 networking/lib.a(wget.o)
 .text.ftpcmd   0x000000000000b8c8       0xca networking/lib.a(wget.o)
 .text.is_ip_address
                0x000000000000b992       0x23 networking/lib.a(wget.o)
 .text.set_alarm
                0x000000000000b9b5       0x20 networking/lib.a(wget.o)
 .text.new_tls_state
                0x000000000000b9d5        0xa networking/lib.a(wget.o)
 .text.progress_meter
                0x000000000000b9df      0x102 networking/lib.a(wget.o)
 .text.parse_pasv_epsv
                0x000000000000bae1       0x96 networking/lib.a(parse_pasv_epsv.o)
                0x000000000000bae1                parse_pasv_epsv
 .text.tls_get_random
                0x000000000000bb77       0x24 networking/lib.a(tls.o)
                0x000000000000bb77                tls_get_random
 .text.xorbuf   0x000000000000bb9b        0xd networking/lib.a(tls.o)
                0x000000000000bb9b                xorbuf
 .text.xorbuf3  0x000000000000bba8       0x19 networking/lib.a(tls.o)
 .text.xorbuf_aligned_AES_BLOCK_SIZE
                0x000000000000bbc1        0xf networking/lib.a(tls.o)
                0x000000000000bbc1                xorbuf_aligned_AES_BLOCK_SIZE
 .text.tls_handshake
                0x000000000000bbd0      0x923 networking/lib.a(tls.o)
                0x000000000000bbd0                tls_handshake
 .text.tls_xread_handshake_block
                0x000000000000c4f3       0x39 networking/lib.a(tls.o)
 .text.bad_record_die
                0x000000000000c52c       0x6d networking/lib.a(tls.o)
 .text.tls_xread_record
                0x000000000000c599      0x2da networking/lib.a(tls.o)
 .text.tls_run_copy_loop
                0x000000000000c873      0x154 networking/lib.a(tls.o)
                0x000000000000c873                tls_run_copy_loop
 .text.tls_get_outbuf
                0x000000000000c9c7       0x38 networking/lib.a(tls.o)
 .text.tls_get_zeroed_outbuf
                0x000000000000c9ff       0x16 networking/lib.a(tls.o)
 .text.xwrite_and_update_handshake_hash
                0x000000000000ca15       0x62 networking/lib.a(tls.o)
 .text.hash_handshake
                0x000000000000ca77        0xb networking/lib.a(tls.o)
 .text.xwrite_encrypted
                0x000000000000ca82      0x22a networking/lib.a(tls.o)
 .text.hmac     0x000000000000ccac       0xa6 networking/lib.a(tls.o)
 .text.hmac_begin
                0x000000000000cd52       0x95 networking/lib.a(tls.o)
 .text.hmac_sha_precomputed_v
                0x000000000000cde7       0x9d networking/lib.a(tls.o)
 .text.tls_error_die
                0x000000000000ce84       0x13 networking/lib.a(tls.o)
 .text.enter_der_item
                0x000000000000ce97       0x2e networking/lib.a(tls.o)
 .text.skip_der_item
                0x000000000000cec5       0x23 networking/lib.a(tls.o)
 .text.der_binary_to_pstm
                0x000000000000cee8       0x3c networking/lib.a(tls.o)
 .text.get_der_len
                0x000000000000cf24       0x57 networking/lib.a(tls.o)
 .text.prf_hmac_sha256
                0x000000000000cf7b      0x12b networking/lib.a(tls.o)
 .text.hmac_sha_precomputed
                0x000000000000d0a6       0xaf networking/lib.a(tls.o)
 .text.alert_text
                0x000000000000d155       0x52 networking/lib.a(tls.o)
 .text.aes_setkey
                0x000000000000d1a7       0xd8 networking/lib.a(tls_aes.o)
                0x000000000000d1a7                aes_setkey
 .text.aes_encrypt_one_block
                0x000000000000d27f       0x3d networking/lib.a(tls_aes.o)
                0x000000000000d27f                aes_encrypt_one_block
 .text.aes_encrypt_1
                0x000000000000d2bc      0x183 networking/lib.a(tls_aes.o)
 .text.aes_cbc_encrypt
                0x000000000000d43f       0x86 networking/lib.a(tls_aes.o)
                0x000000000000d43f                aes_cbc_encrypt
 .text.aes_cbc_decrypt
                0x000000000000d4c5      0x31c networking/lib.a(tls_aes.o)
                0x000000000000d4c5                aes_cbc_decrypt
 .text.Subword  0x000000000000d7e1       0x47 networking/lib.a(tls_aes.o)
 .text.AddRoundKey
                0x000000000000d828       0x3f networking/lib.a(tls_aes.o)
 .text.aesgcm_GHASH
                0x000000000000d867       0xaf networking/lib.a(tls_aesgcm.o)
                0x000000000000d867                aesgcm_GHASH
 .text.GMULT    0x000000000000d916       0xe8 networking/lib.a(tls_aesgcm.o)
 .text.curve_x25519_compute_pubkey_and_premaster
                0x000000000000d9fe       0x56 networking/lib.a(tls_fe.o)
                0x000000000000d9fe                curve_x25519_compute_pubkey_and_premaster
 .text.curve25519
                0x000000000000da54      0x316 networking/lib.a(tls_fe.o)
 .text.xc_diffadd
                0x000000000000dd6a      0x117 networking/lib.a(tls_fe.o)
 .text.fe_mul__distinct
                0x000000000000de81       0x83 networking/lib.a(tls_fe.o)
 .text.lm_add   0x000000000000df04       0x2c networking/lib.a(tls_fe.o)
 .text.lm_sub   0x000000000000df30       0x48 networking/lib.a(tls_fe.o)
 .text.fe_reduce
                0x000000000000df78       0x27 networking/lib.a(tls_fe.o)
 .text.fe_mul_c
                0x000000000000df9f       0x28 networking/lib.a(tls_fe.o)
 .text.pstm_init_size
                0x000000000000dfc7       0x2a networking/lib.a(tls_pstm.o)
                0x000000000000dfc7                pstm_init_size
 .text.pstm_grow
                0x000000000000dff1       0x49 networking/lib.a(tls_pstm.o)
                0x000000000000dff1                pstm_grow
 .text.pstm_copy
                0x000000000000e03a       0x5a networking/lib.a(tls_pstm.o)
                0x000000000000e03a                pstm_copy
 .text.pstm_clamp
                0x000000000000e094       0x21 networking/lib.a(tls_pstm.o)
                0x000000000000e094                pstm_clamp
 .text.pstm_clear
                0x000000000000e0b5       0x39 networking/lib.a(tls_pstm.o)
                0x000000000000e0b5                pstm_clear
 .text.pstm_cmp_mag
                0x000000000000e0ee       0x45 networking/lib.a(tls_pstm.o)
                0x000000000000e0ee                pstm_cmp_mag
 .text.pstm_cmp
                0x000000000000e133       0x32 networking/lib.a(tls_pstm.o)
                0x000000000000e133                pstm_cmp
 .text.pstm_init_for_read_unsigned_bin
                0x000000000000e165       0x10 networking/lib.a(tls_pstm.o)
                0x000000000000e165                pstm_init_for_read_unsigned_bin
 .text.pstm_read_unsigned_bin
                0x000000000000e175       0x7a networking/lib.a(tls_pstm.o)
                0x000000000000e175                pstm_read_unsigned_bin
 .text.pstm_zero
                0x000000000000e1ef       0x1c networking/lib.a(tls_pstm.o)
 .text.pstm_unsigned_bin_size
                0x000000000000e20b       0x19 networking/lib.a(tls_pstm.o)
                0x000000000000e20b                pstm_unsigned_bin_size
 .text.pstm_count_bits
                0x000000000000e224       0x24 networking/lib.a(tls_pstm.o)
 .text.pstm_mul_2
                0x000000000000e248       0x8e networking/lib.a(tls_pstm.o)
                0x000000000000e248                pstm_mul_2
 .text.s_pstm_sub
                0x000000000000e2d6       0xb4 networking/lib.a(tls_pstm.o)
                0x000000000000e2d6                s_pstm_sub
 .text.pstm_sub
                0x000000000000e38a       0x72 networking/lib.a(tls_pstm.o)
                0x000000000000e38a                pstm_sub
 .text.s_pstm_add
                0x000000000000e3fc       0xe4 networking/lib.a(tls_pstm.o)
 .text.pstm_mulmod
                0x000000000000e4e0       0x8e networking/lib.a(tls_pstm.o)
                0x000000000000e4e0                pstm_mulmod
 .text.pstm_mod
                0x000000000000e56e      0x525 networking/lib.a(tls_pstm.o)
 .text.pstm_exptmod
                0x000000000000ea93      0x6c6 networking/lib.a(tls_pstm.o)
                0x000000000000ea93                pstm_exptmod
 .text.pstm_init_copy
                0x000000000000f159       0x42 networking/lib.a(tls_pstm.o)
 .text.pstm_add
                0x000000000000f19b       0x6e networking/lib.a(tls_pstm.o)
                0x000000000000f19b                pstm_add
 .text.pstm_to_unsigned_bin
                0x000000000000f209       0x8c networking/lib.a(tls_pstm.o)
                0x000000000000f209                pstm_to_unsigned_bin
 .text.pstm_div_2d
                0x000000000000f295       0x93 networking/lib.a(tls_pstm.o)
 .text.pstm_mul_2d
                0x000000000000f328       0x98 networking/lib.a(tls_pstm.o)
 .text.pstm_lshd
                0x000000000000f3c0       0x68 networking/lib.a(tls_pstm.o)
 .text.pstm_rshd
                0x000000000000f428       0x51 networking/lib.a(tls_pstm.o)
 .text.pstm_mul_d
                0x000000000000f479       0x9c networking/lib.a(tls_pstm.o)
 .text.pstm_montgomery_reduce
                0x000000000000f515      0x169 networking/lib.a(tls_pstm_montgomery_reduce.o)
                0x000000000000f515                pstm_montgomery_reduce
 .text.pstm_mul_comba
                0x000000000000f67e      0x1b0 networking/lib.a(tls_pstm_mul_comba.o)
                0x000000000000f67e                pstm_mul_comba
 .text.pstm_sqr_comba
                0x000000000000f82e      0x1dc networking/lib.a(tls_pstm_sqr_comba.o)
                0x000000000000f82e                pstm_sqr_comba
 .text.psRsaEncryptPub
                0x000000000000fa0a      0x1e6 networking/lib.a(tls_rsa.o)
                0x000000000000fa0a                psRsaEncryptPub
 .text.curve_P256_compute_pubkey_and_premaster
                0x000000000000fbf0       0xc5 networking/lib.a(tls_sp_c32.o)
                0x000000000000fbf0                curve_P256_compute_pubkey_and_premaster
 .text.sp_256_to_bin_8
                0x000000000000fcb5       0x1c networking/lib.a(tls_sp_c32.o)
 .text.sp_256_point_from_bin2x32
                0x000000000000fcd1       0x5b networking/lib.a(tls_sp_c32.o)
 .text.sp_256_ecc_mulmod_8
                0x000000000000fd2c      0x249 networking/lib.a(tls_sp_c32.o)
 .text.sp_256_from_bin_8
                0x000000000000ff75       0x1c networking/lib.a(tls_sp_c32.o)
 .text.sp_256_mod_mul_norm_8
                0x000000000000ff91      0x17c networking/lib.a(tls_sp_c32.o)
 .text.sp_256_proj_point_add_8
                0x000000000001010d      0x262 networking/lib.a(tls_sp_c32.o)
 .text.sp_256_proj_point_dbl_8
                0x000000000001036f      0x29e networking/lib.a(tls_sp_c32.o)
 .text.sp_256_cmp_equal_8
                0x000000000001060d       0x11 networking/lib.a(tls_sp_c32.o)
 .text.sp_256_mont_sqr_8
                0x000000000001061e        0x8 networking/lib.a(tls_sp_c32.o)
 .text.sp_256_mont_mul_8
                0x0000000000010626       0xdb networking/lib.a(tls_sp_c32.o)
 .text.sp_256_mont_sub_8
                0x0000000000010701       0x72 networking/lib.a(tls_sp_c32.o)
 .text.sp_256_mont_dbl_8
                0x0000000000010773       0x5d networking/lib.a(tls_sp_c32.o)
 .text.sp_256_cmp_8
                0x00000000000107d0       0x26 networking/lib.a(tls_sp_c32.o)
 .text.sp_512to256_mont_reduce_8
                0x00000000000107f6       0xc0 networking/lib.a(tls_sp_c32.o)
 .text.sp_256_mont_mul_and_reduce_8
                0x00000000000108b6       0x33 networking/lib.a(tls_sp_c32.o)
 .text.kill_main
                0x00000000000108e9      0x226 procps/lib.a(kill.o)
                0x00000000000108e9                kill_main
 .text.lsof_main
                0x0000000000010b0f       0xde procps/lib.a(lsof.o)
                0x0000000000010b0f                lsof_main
 .text.ash_main
                0x0000000000010bed      0x487 shell/lib.a(ash.o)
                0x0000000000010bed                ash_main
 .text.newline_and_flush
                0x0000000000011074       0x2a shell/lib.a(ash.o)
 .text.popstackmark
                0x000000000001109e       0x64 shell/lib.a(ash.o)
 .text.force_int_on
                0x0000000000011102       0x1f shell/lib.a(ash.o)
 .text.init     0x0000000000011121      0x1e3 shell/lib.a(ash.o)
 .text.setstackmark
                0x0000000000011304       0x2c shell/lib.a(ash.o)
 .text.read_profile
                0x0000000000011330       0x27 shell/lib.a(ash.o)
 .text.lookupvar
                0x0000000000011357       0xa9 shell/lib.a(ash.o)
 .text.evalstring
                0x0000000000011400      0x114 shell/lib.a(ash.o)
 .text.setvar0  0x0000000000011514        0x7 shell/lib.a(ash.o)
 .text.int_on   0x000000000001151b       0x1d shell/lib.a(ash.o)
 .text.cmdloop  0x0000000000011538      0x160 shell/lib.a(ash.o)
 .text.changemail
                0x0000000000011698        0x1 shell/lib.a(ash.o)
 .text.changepath
                0x0000000000011699       0x62 shell/lib.a(ash.o)
 .text.getoptsreset
                0x00000000000116fb       0x40 shell/lib.a(ash.o)
 .text.change_random
                0x000000000001173b       0x88 shell/lib.a(ash.o)
 .text.change_seconds
                0x00000000000117c3       0x1b shell/lib.a(ash.o)
 .text.change_realtime
                0x00000000000117de       0x1b shell/lib.a(ash.o)
 .text.prefix   0x00000000000117f9       0x1a shell/lib.a(ash.o)
 .text.clearcmdentry
                0x0000000000011813       0x7c shell/lib.a(ash.o)
 .text.is_number
                0x000000000001188f       0x1d shell/lib.a(ash.o)
 .text.number   0x00000000000118ac       0x27 shell/lib.a(ash.o)
 .text.ash_msg_and_raise_error
                0x00000000000118d3       0x93 shell/lib.a(ash.o)
 .text.ash_vmsg_and_raise
                0x0000000000011966       0x1a shell/lib.a(ash.o)
 .text.ash_vmsg
                0x0000000000011980       0xb6 shell/lib.a(ash.o)
 .text.flush_stdout_stderr
                0x0000000000011a36       0x19 shell/lib.a(ash.o)
 .text.raise_exception
                0x0000000000011a4f       0x1e shell/lib.a(ash.o)
 .text.setvar   0x0000000000011a6d       0xdf shell/lib.a(ash.o)
 .text.setvareq
                0x0000000000011b4c      0x179 shell/lib.a(ash.o)
 .text.hashvar  0x0000000000011cc5       0x37 shell/lib.a(ash.o)
 .text.findvar  0x0000000000011cfc       0x2f shell/lib.a(ash.o)
 .text.var_end  0x0000000000011d2b       0x12 shell/lib.a(ash.o)
 .text.varcmp   0x0000000000011d3d       0x3a shell/lib.a(ash.o)
 .text.change_epoch
                0x0000000000011d77       0x50 shell/lib.a(ash.o)
 .text.ifsfree  0x0000000000011dc7       0x41 shell/lib.a(ash.o)
 .text.unwindredir
                0x0000000000011e08       0x28 shell/lib.a(ash.o)
 .text.popredir
                0x0000000000011e30       0x94 shell/lib.a(ash.o)
 .text.dup2_or_raise
                0x0000000000011ec4       0x37 shell/lib.a(ash.o)
 .text.setjobctl
                0x0000000000011efb      0x17d shell/lib.a(ash.o)
 .text.ash_msg  0x0000000000012078       0x85 shell/lib.a(ash.o)
 .text.setsignal
                0x00000000000120fd      0x141 shell/lib.a(ash.o)
 .text.xtcsetpgrp
                0x000000000001223e       0x2b shell/lib.a(ash.o)
 .text.signal_handler
                0x0000000000012269       0x58 shell/lib.a(ash.o)
 .text.raise_interrupt
                0x00000000000122c1       0x42 shell/lib.a(ash.o)
 .text.popallfiles
                0x0000000000012303        0xc shell/lib.a(ash.o)
 .text.unwindlocalvars
                0x000000000001230f       0xf8 shell/lib.a(ash.o)
 .text.unwindfiles
                0x0000000000012407       0x16 shell/lib.a(ash.o)
 .text.popfile  0x000000000001241d       0x80 shell/lib.a(ash.o)
 .text.freestrings
                0x000000000001249d       0x72 shell/lib.a(ash.o)
 .text.popstring
                0x000000000001250f       0x87 shell/lib.a(ash.o)
 .text.unalias  0x0000000000012596       0x35 shell/lib.a(ash.o)
 .text.__lookupalias
                0x00000000000125cb       0x5a shell/lib.a(ash.o)
 .text.freealias
                0x0000000000012625       0x41 shell/lib.a(ash.o)
 .text.unsetvar
                0x0000000000012666        0x9 shell/lib.a(ash.o)
 .text.optschanged
                0x000000000001266f       0x9c shell/lib.a(ash.o)
 .text.get_builtin_name
                0x000000000001270b       0x1e shell/lib.a(ash.o)
 .text.dotcmd   0x0000000000012729      0x15c shell/lib.a(ash.o)
 .text.truecmd  0x0000000000012885        0x3 shell/lib.a(ash.o)
 .text.testcmd  0x0000000000012888        0x5 shell/lib.a(ash.o)
 .text.aliascmd
                0x000000000001288d      0x152 shell/lib.a(ash.o)
 .text.fg_bgcmd
                0x00000000000129df      0x17a shell/lib.a(ash.o)
 .text.breakcmd
                0x0000000000012b59       0x55 shell/lib.a(ash.o)
 .text.cdcmd    0x0000000000012bae      0x374 shell/lib.a(ash.o)
 .text.commandcmd
                0x0000000000012f22       0x70 shell/lib.a(ash.o)
 .text.echocmd  0x0000000000012f92        0x5 shell/lib.a(ash.o)
 .text.execcmd  0x0000000000012f97       0x88 shell/lib.a(ash.o)
 .text.exportcmd
                0x000000000001301f       0xe1 shell/lib.a(ash.o)
 .text.falsecmd
                0x0000000000013100        0x4 shell/lib.a(ash.o)
 .text.getoptscmd
                0x0000000000013104      0x2db shell/lib.a(ash.o)
 .text.hashcmd  0x00000000000133df      0x19c shell/lib.a(ash.o)
 .text.helpcmd  0x000000000001357b       0xf1 shell/lib.a(ash.o)
 .text.historycmd
                0x000000000001366c       0x11 shell/lib.a(ash.o)
 .text.jobscmd  0x000000000001367d       0x77 shell/lib.a(ash.o)
 .text.killcmd  0x00000000000136f4      0x10d shell/lib.a(ash.o)
 .text.letcmd   0x0000000000013801       0x3c shell/lib.a(ash.o)
 .text.localcmd
                0x000000000001383d       0x39 shell/lib.a(ash.o)
 .text.printfcmd
                0x0000000000013876        0x5 shell/lib.a(ash.o)
 .text.pwdcmd   0x000000000001387b       0x53 shell/lib.a(ash.o)
 .text.readcmd  0x00000000000138ce      0x134 shell/lib.a(ash.o)
 .text.returncmd
                0x0000000000013a02       0x2a shell/lib.a(ash.o)
 .text.setcmd   0x0000000000013a2c       0x54 shell/lib.a(ash.o)
 .text.shiftcmd
                0x0000000000013a80       0x99 shell/lib.a(ash.o)
 .text.sleepcmd
                0x0000000000013b19        0x5 shell/lib.a(ash.o)
 .text.timescmd
                0x0000000000013b1e       0x80 shell/lib.a(ash.o)
 .text.trapcmd  0x0000000000013b9e      0x184 shell/lib.a(ash.o)
 .text.typecmd  0x0000000000013d22       0x50 shell/lib.a(ash.o)
 .text.ulimitcmd
                0x0000000000013d72        0x8 shell/lib.a(ash.o)
 .text.umaskcmd
                0x0000000000013d7a      0x120 shell/lib.a(ash.o)
 .text.unaliascmd
                0x0000000000013e9a       0xdc shell/lib.a(ash.o)
 .text.unsetcmd
                0x0000000000013f76       0x5b shell/lib.a(ash.o)
 .text.waitcmd  0x0000000000013fd1      0x157 shell/lib.a(ash.o)
 .text.nextopt  0x0000000000014128       0xc6 shell/lib.a(ash.o)
 .text.setinputfile
                0x00000000000141ee      0x10e shell/lib.a(ash.o)
 .text.freeparam
                0x00000000000142fc       0x3b shell/lib.a(ash.o)
 .text.padvance
                0x0000000000014337        0x8 shell/lib.a(ash.o)
 .text.stalloc  0x000000000001433f       0xa9 shell/lib.a(ash.o)
 .text.padvance_magic
                0x00000000000143e8      0x141 shell/lib.a(ash.o)
 .text.legal_pathopt
                0x0000000000014529       0x56 shell/lib.a(ash.o)
 .text.growstackto
                0x000000000001457f       0x1c shell/lib.a(ash.o)
 .text.growstackblock
                0x000000000001459b       0xde shell/lib.a(ash.o)
 .text.pushfile
                0x0000000000014679       0x22 shell/lib.a(ash.o)
 .text.printalias
                0x000000000001469b       0x23 shell/lib.a(ash.o)
 .text.out1fmt  0x00000000000146be       0x9d shell/lib.a(ash.o)
 .text.single_quote
                0x000000000001475b       0xe5 shell/lib.a(ash.o)
 .text.makestrspace
                0x0000000000014840       0x1f shell/lib.a(ash.o)
 .text.getjob   0x000000000001485f      0x172 shell/lib.a(ash.o)
 .text.set_curjob
                0x00000000000149d1       0x55 shell/lib.a(ash.o)
 .text.out1str  0x0000000000014a26        0xf shell/lib.a(ash.o)
 .text.outstr   0x0000000000014a35       0x19 shell/lib.a(ash.o)
 .text.waitforjob
                0x0000000000014a4e       0x80 shell/lib.a(ash.o)
 .text.dowait   0x0000000000014ace      0x291 shell/lib.a(ash.o)
 .text.getstatus
                0x0000000000014d5f       0x5e shell/lib.a(ash.o)
 .text.freejob  0x0000000000014dbd       0x6d shell/lib.a(ash.o)
 .text.sprint_status48
                0x0000000000014e2a       0xb7 shell/lib.a(ash.o)
 .text.out2str  0x0000000000014ee1       0x16 shell/lib.a(ash.o)
 .text.fmtstr   0x0000000000014ef7       0xa2 shell/lib.a(ash.o)
 .text.cdopt    0x0000000000014f99       0x30 shell/lib.a(ash.o)
 .text.setpwd   0x0000000000014fc9       0xc1 shell/lib.a(ash.o)
 .text.sstrdup  0x000000000001508a       0x2f shell/lib.a(ash.o)
 .text.stack_putstr
                0x00000000000150b9       0x44 shell/lib.a(ash.o)
 .text.describe_command
                0x00000000000150fd      0x1a7 shell/lib.a(ash.o)
 .text.findkwd  0x00000000000152a4       0x19 shell/lib.a(ash.o)
 .text.lookupalias
                0x00000000000152bd       0x1e shell/lib.a(ash.o)
 .text.find_command
                0x00000000000152db      0x401 shell/lib.a(ash.o)
 .text.pstrcmp  0x00000000000156dc        0x8 shell/lib.a(ash.o)
 .text.cmdlookup
                0x00000000000156e4       0xa7 shell/lib.a(ash.o)
 .text.find_builtin
                0x000000000001578b       0x19 shell/lib.a(ash.o)
 .text.delete_cmd_entry
                0x00000000000157a4       0x3b shell/lib.a(ash.o)
 .text.evalfun  0x00000000000157df      0x188 shell/lib.a(ash.o)
 .text.errmsg   0x0000000000015967       0x12 shell/lib.a(ash.o)
 .text.pstrcmp1
                0x0000000000015979        0xb shell/lib.a(ash.o)
 .text.freefunc
                0x0000000000015984       0x15 shell/lib.a(ash.o)
 .text.evaltree
                0x0000000000015999      0x324 shell/lib.a(ash.o)
 .text.dotrap   0x0000000000015cbd       0xb5 shell/lib.a(ash.o)
 .text.expredir
                0x0000000000015d72       0xc4 shell/lib.a(ash.o)
 .text.pushredir
                0x0000000000015e36       0x6b shell/lib.a(ash.o)
 .text.redirectsafe
                0x0000000000015ea1       0x8e shell/lib.a(ash.o)
 .text.evalcommand
                0x0000000000015f2f      0x7a2 shell/lib.a(ash.o)
 .text.evalfor  0x00000000000166d1       0xbc shell/lib.a(ash.o)
 .text.evalloop
                0x000000000001678d       0x7b shell/lib.a(ash.o)
 .text.evalsubshell
                0x0000000000016808       0xd9 shell/lib.a(ash.o)
 .text.evalpipe
                0x00000000000168e1      0x1a8 shell/lib.a(ash.o)
 .text.evalcase
                0x0000000000016a89      0x12e shell/lib.a(ash.o)
 .text.expandarg
                0x0000000000016bb7      0x471 shell/lib.a(ash.o)
 .text.isdigit_str9
                0x0000000000017028       0x1f shell/lib.a(ash.o)
 .text.fixredir
                0x0000000000017047       0x68 shell/lib.a(ash.o)
 .text.argstr   0x00000000000170af      0x578 shell/lib.a(ash.o)
 .text.stzalloc
                0x0000000000017627       0x17 shell/lib.a(ash.o)
 .text.recordregion
                0x000000000001763e       0x66 shell/lib.a(ash.o)
 .text.evalvar  0x00000000000176a4      0x253 shell/lib.a(ash.o)
 .text.strtodest
                0x00000000000178f7       0x28 shell/lib.a(ash.o)
 .text.memtodest
                0x000000000001791f       0xd1 shell/lib.a(ash.o)
 .text.SIT      0x00000000000179f0       0x6b shell/lib.a(ash.o)
 .text.varvalue
                0x0000000000017a5b      0x2d2 shell/lib.a(ash.o)
 .text.subevalvar
                0x0000000000017d2d      0x756 shell/lib.a(ash.o)
 .text.varunset
                0x0000000000018483       0x65 shell/lib.a(ash.o)
 .text.cvtnum   0x00000000000184e8       0x38 shell/lib.a(ash.o)
 .text._STPUTC  0x0000000000018520       0x22 shell/lib.a(ash.o)
 .text.raise_error_syntax
                0x0000000000018542       0x29 shell/lib.a(ash.o)
 .text.reinit_unicode_for_ash
                0x000000000001856b       0x38 shell/lib.a(ash.o)
 .text.substr_atoi
                0x00000000000185a3       0x28 shell/lib.a(ash.o)
 .text.rmescapes
                0x00000000000185cb      0x166 shell/lib.a(ash.o)
 .text.scanright
                0x0000000000018731       0xb4 shell/lib.a(ash.o)
 .text.scanleft
                0x00000000000187e5       0x7e shell/lib.a(ash.o)
 .text.removerecordregions
                0x0000000000018863       0xe8 shell/lib.a(ash.o)
 .text.ash_arith
                0x000000000001894b       0x5c shell/lib.a(ash.o)
 .text.growstackstr
                0x00000000000189a7       0x28 shell/lib.a(ash.o)
 .text.pushstackmark
                0x00000000000189cf       0x20 shell/lib.a(ash.o)
 .text.evalbackcmd
                0x00000000000189ef      0x17e shell/lib.a(ash.o)
 .text.makejob  0x0000000000018b6d      0x154 shell/lib.a(ash.o)
 .text.forkshell
                0x0000000000018cc1      0x135 shell/lib.a(ash.o)
 .text.forkchild
                0x0000000000018df6      0x290 shell/lib.a(ash.o)
 .text.ignoresig
                0x0000000000019086       0x32 shell/lib.a(ash.o)
 .text.cmdtxt   0x00000000000190b8      0x2e6 shell/lib.a(ash.o)
 .text.cmdputs  0x000000000001939e      0x18f shell/lib.a(ash.o)
 .text.cmdlist  0x000000000001952d       0x4d shell/lib.a(ash.o)
 .text.preglob  0x000000000001957a        0xa shell/lib.a(ash.o)
 .text.expmeta  0x0000000000019584      0x2e7 shell/lib.a(ash.o)
 .text.addfname
                0x000000000001986b       0x37 shell/lib.a(ash.o)
 .text.msort    0x00000000000198a2       0xab shell/lib.a(ash.o)
 .text.makename
                0x000000000001994d       0x24 shell/lib.a(ash.o)
 .text.redirect
                0x0000000000019971      0x3f7 shell/lib.a(ash.o)
 .text.openhere
                0x0000000000019d68       0xec shell/lib.a(ash.o)
 .text.xdup_CLOEXEC_and_close
                0x0000000000019e54       0x70 shell/lib.a(ash.o)
 .text.dup_CLOEXEC
                0x0000000000019ec4       0x37 shell/lib.a(ash.o)
 .text.bltincmd
                0x0000000000019efb        0xf shell/lib.a(ash.o)
 .text.fill_arglist
                0x0000000000019f0a       0x4b shell/lib.a(ash.o)
 .text.isassignment
                0x0000000000019f55       0x1f shell/lib.a(ash.o)
 .text.mklocal  0x0000000000019f74      0x141 shell/lib.a(ash.o)
 .text.expandstr
                0x000000000001a0b5      0x10c shell/lib.a(ash.o)
 .text.maybe_single_quote
                0x000000000001a1c1       0x3d shell/lib.a(ash.o)
 .text.listvars
                0x000000000001a1fe      0x11c shell/lib.a(ash.o)
 .text.shellexec
                0x000000000001a31a      0x136 shell/lib.a(ash.o)
 .text.evalbltin
                0x000000000001a450      0x164 shell/lib.a(ash.o)
 .text.setinputstring
                0x000000000001a5b4       0x53 shell/lib.a(ash.o)
 .text.readtoken1
                0x000000000001a607      0xe92 shell/lib.a(ash.o)
 .text.pgetc_eatbnl
                0x000000000001b499       0x2f shell/lib.a(ash.o)
 .text.nlprompt
                0x000000000001b4c8       0x2c shell/lib.a(ash.o)
 .text.pgetc_top
                0x000000000001b4f4        0xe shell/lib.a(ash.o)
 .text.pgetc    0x000000000001b502       0x1c shell/lib.a(ash.o)
 .text.pushstring
                0x000000000001b51e       0xab shell/lib.a(ash.o)
 .text.setprompt_if
                0x000000000001b5c9       0xab shell/lib.a(ash.o)
 .text.nlnoprompt
                0x000000000001b674       0x2a shell/lib.a(ash.o)
 .text.list     0x000000000001b69e      0x188 shell/lib.a(ash.o)
 .text.readtoken
                0x000000000001b826       0xb7 shell/lib.a(ash.o)
 .text.raise_error_unexpected_syntax
                0x000000000001b8dd       0x64 shell/lib.a(ash.o)
 .text.parseheredoc
                0x000000000001b941       0xa8 shell/lib.a(ash.o)
 .text.__pgetc  0x000000000001b9e9      0x2e7 shell/lib.a(ash.o)
 .text.pipeline
                0x000000000001bcd0       0xc6 shell/lib.a(ash.o)
 .text.parse_command
                0x000000000001bd96      0x734 shell/lib.a(ash.o)
 .text.goodname
                0x000000000001c4ca       0x12 shell/lib.a(ash.o)
 .text.parsefname
                0x000000000001c4dc       0xbb shell/lib.a(ash.o)
 .text.xxreadtoken
                0x000000000001c597      0x111 shell/lib.a(ash.o)
 .text.tokname  0x000000000001c6a8       0x2f shell/lib.a(ash.o)
 .text.tryexec  0x000000000001c6d7       0xcd shell/lib.a(ash.o)
 .text.ash_msg_and_raise
                0x000000000001c7a4       0x83 shell/lib.a(ash.o)
 .text.skiploop
                0x000000000001c827       0x2f shell/lib.a(ash.o)
 .text.calcsize
                0x000000000001c856       0xe7 shell/lib.a(ash.o)
 .text.copynode
                0x000000000001c93d      0x136 shell/lib.a(ash.o)
 .text.sizenodelist
                0x000000000001ca73       0x20 shell/lib.a(ash.o)
 .text.copynodelist
                0x000000000001ca93       0x49 shell/lib.a(ash.o)
 .text.nodeckstrdup
                0x000000000001cadc       0x2b shell/lib.a(ash.o)
 .text.stoppedjobs
                0x000000000001cb07       0x42 shell/lib.a(ash.o)
 .text.showvars
                0x000000000001cb49       0xb8 shell/lib.a(ash.o)
 .text.vpcmp    0x000000000001cc01        0xb shell/lib.a(ash.o)
 .text.showjob  0x000000000001cc0c      0x1ec shell/lib.a(ash.o)
 .text.showjobs
                0x000000000001cdf8       0x40 shell/lib.a(ash.o)
 .text.options  0x000000000001ce38      0x2c9 shell/lib.a(ash.o)
 .text.setparam
                0x000000000001d101       0x85 shell/lib.a(ash.o)
 .text.parsecmd
                0x000000000001d186       0x38 shell/lib.a(ash.o)
 .text.cttyhack_main
                0x000000000001d1be      0x185 shell/lib.a(cttyhack.o)
                0x000000000001d1be                cttyhack_main
 .text.arith    0x000000000001d343        0xe shell/lib.a(math.o)
                0x000000000001d343                arith
 .text.evaluate_string
                0x000000000001d351      0x450 shell/lib.a(math.o)
 .text.arith_lookup_val
                0x000000000001d7a1       0x95 shell/lib.a(math.o)
 .text.arith_apply
                0x000000000001d836      0x32b shell/lib.a(math.o)
 .text.next_random
                0x000000000001db61       0x88 shell/lib.a(random.o)
                0x000000000001db61                next_random
 .text.shell_builtin_read
                0x000000000001dbe9      0x616 shell/lib.a(shell_common.o)
                0x000000000001dbe9                shell_builtin_read
 .text.shell_builtin_ulimit
                0x000000000001e1ff      0x2e5 shell/lib.a(shell_common.o)
                0x000000000001e1ff                shell_builtin_ulimit
 .text.printlim
                0x000000000001e4e4       0x33 shell/lib.a(shell_common.o)
 .text.dowork_main
                0x000000000001e517        0x3 dowork/lib.a(dowork.o)
                0x000000000001e517                dowork_main
 .text.progressRead
                0x000000000001e51a       0x3d dowork/lib.a(dowork.o)
                0x000000000001e51a                progressRead
 .text.sendinfor
                0x000000000001e557       0x24 dowork/lib.a(dowork.o)
                0x000000000001e557                sendinfor
 .text.get_file_size
                0x000000000001e57b       0x36 dowork/lib.a(dowork.o)
                0x000000000001e57b                get_file_size
 .text.initSocket
                0x000000000001e5b1       0x98 dowork/lib.a(dowork.o)
                0x000000000001e5b1                initSocket
 .text.ar_main  0x000000000001e649      0x294 archival/lib.a(ar.o)
                0x000000000001e649                ar_main
 .text.header_verbose_list_ar
                0x000000000001e8dd       0x5a archival/lib.a(ar.o)
 .text.filter_replaceable
                0x000000000001e937       0x1c archival/lib.a(ar.o)
 .text.copy_data
                0x000000000001e953       0x3d archival/lib.a(ar.o)
 .text.output_ar_header
                0x000000000001e990       0xa9 archival/lib.a(ar.o)
 .text.append_ext
                0x000000000001ea39       0x14 archival/lib.a(bbunzip.o)
                0x000000000001ea39                append_ext
 .text.bbunpack
                0x000000000001ea4d      0x2dd archival/lib.a(bbunzip.o)
                0x000000000001ea4d                bbunpack
 .text.open_to_or_warn
                0x000000000001ed2a       0x25 archival/lib.a(bbunzip.o)
 .text.uncompress_main
                0x000000000001ed4f       0x3e archival/lib.a(bbunzip.o)
                0x000000000001ed4f                uncompress_main
 .text.make_new_name_generic
                0x000000000001ed8d       0x3c archival/lib.a(bbunzip.o)
 .text.gunzip_main
                0x000000000001edc9       0x57 archival/lib.a(bbunzip.o)
                0x000000000001edc9                gunzip_main
 .text.make_new_name_gunzip
                0x000000000001ee20       0x86 archival/lib.a(bbunzip.o)
 .text.bunzip2_main
                0x000000000001eea6       0x52 archival/lib.a(bbunzip.o)
                0x000000000001eea6                bunzip2_main
 .text.unlzma_main
                0x000000000001eef8       0x62 archival/lib.a(bbunzip.o)
                0x000000000001eef8                unlzma_main
 .text.unxz_main
                0x000000000001ef5a       0x61 archival/lib.a(bbunzip.o)
                0x000000000001ef5a                unxz_main
 .text.bzip2_main
                0x000000000001efbb       0x5b archival/lib.a(bzip2.o)
                0x000000000001efbb                bzip2_main
 .text.compressStream
                0x000000000001f016      0x20b archival/lib.a(bzip2.o)
 .text.prepare_new_block
                0x000000000001f221       0x26 archival/lib.a(bzip2.o)
 .text.handle_compress
                0x000000000001f247      0x184 archival/lib.a(bzip2.o)
 .text.BZ2_compressBlock
                0x000000000001f3cb      0x102 archival/lib.a(bzip2.o)
 .text.add_pair_to_block
                0x000000000001f4cd       0xec archival/lib.a(bzip2.o)
 .text.BZ2_blockSort
                0x000000000001f5b9      0x3d8 archival/lib.a(bzip2.o)
 .text.bsPutU32
                0x000000000001f991       0x23 archival/lib.a(bzip2.o)
 .text.bsW1_0   0x000000000001f9b4       0x2c archival/lib.a(bzip2.o)
 .text.bsW      0x000000000001f9e0       0x39 archival/lib.a(bzip2.o)
 .text.generateMTFValues
                0x000000000001fa19      0x194 archival/lib.a(bzip2.o)
 .text.sendMTFValues
                0x000000000001fbad      0x87c archival/lib.a(bzip2.o)
 .text.bsFinishWrite
                0x0000000000020429       0x28 archival/lib.a(bzip2.o)
 .text.mainSort
                0x0000000000020451      0x404 archival/lib.a(bzip2.o)
 .text.mainQSort3
                0x0000000000020855      0x4c3 archival/lib.a(bzip2.o)
 .text.mvswap   0x0000000000020d18       0x21 archival/lib.a(bzip2.o)
 .text.mainGtU  0x0000000000020d39      0x29b archival/lib.a(bzip2.o)
 .text.fallbackQSort3
                0x0000000000020fd4      0x446 archival/lib.a(bzip2.o)
 .text.bsW16    0x000000000002141a       0x38 archival/lib.a(bzip2.o)
 .text.cpio_main
                0x0000000000021452      0x288 archival/lib.a(cpio.o)
                0x0000000000021452                cpio_main
 .text.cpio_o   0x00000000000216da      0x436 archival/lib.a(cpio.o)
 .text.cpio_pad4
                0x0000000000021b10       0x2b archival/lib.a(cpio.o)
 .text.dpkg_main
                0x0000000000021b3b     0x119c archival/lib.a(dpkg.o)
                0x0000000000021b3b                dpkg_main
 .text.init_archive_deb_ar
                0x0000000000022cd7       0x32 archival/lib.a(dpkg.o)
 .text.init_archive_deb_control
                0x0000000000022d09       0x65 archival/lib.a(dpkg.o)
 .text.fill_package_struct
                0x0000000000022d6e      0x1bd archival/lib.a(dpkg.o)
 .text.search_status_hashtable
                0x0000000000022f2b       0x82 archival/lib.a(dpkg.o)
 .text.search_name_hashtable
                0x0000000000022fad       0x81 archival/lib.a(dpkg.o)
 .text.set_status
                0x000000000002302e       0xb3 archival/lib.a(dpkg.o)
 .text.search_package_hashtable
                0x00000000000230e1       0x92 archival/lib.a(dpkg.o)
 .text.get_status
                0x0000000000023173       0x9d archival/lib.a(dpkg.o)
 .text.remove_package
                0x0000000000023210      0x18d archival/lib.a(dpkg.o)
 .text.purge_package
                0x000000000002339d      0x13f archival/lib.a(dpkg.o)
 .text.unpack_package
                0x00000000000234dc      0x32a archival/lib.a(dpkg.o)
 .text.configure_package
                0x0000000000023806       0x82 archival/lib.a(dpkg.o)
 .text.data_extract_to_buffer
                0x0000000000023888       0x34 archival/lib.a(dpkg.o)
 .text.read_package_field
                0x00000000000238bc      0x147 archival/lib.a(dpkg.o)
 .text.add_split_dependencies
                0x0000000000023a03      0x322 archival/lib.a(dpkg.o)
 .text.free_package
                0x0000000000023d25       0x3f archival/lib.a(dpkg.o)
 .text.add_edge_to_node
                0x0000000000023d64       0x4e archival/lib.a(dpkg.o)
 .text.make_hash
                0x0000000000023db2       0x88 archival/lib.a(dpkg.o)
 .text.test_version
                0x0000000000023e3a      0x16f archival/lib.a(dpkg.o)
 .text.version_compare_part
                0x0000000000023fa9       0xf3 archival/lib.a(dpkg.o)
 .text.order    0x000000000002409c       0x32 archival/lib.a(dpkg.o)
 .text.package_satisfies_dependency
                0x00000000000240ce       0x7b archival/lib.a(dpkg.o)
 .text.describe_status
                0x0000000000024149       0xe0 archival/lib.a(dpkg.o)
 .text.run_package_script_or_die
                0x0000000000024229       0x66 archival/lib.a(dpkg.o)
 .text.create_list
                0x000000000002428f       0x63 archival/lib.a(dpkg.o)
 .text.remove_file_array
                0x00000000000242f2      0x120 archival/lib.a(dpkg.o)
 .text.free_array
                0x0000000000024412       0x30 archival/lib.a(dpkg.o)
 .text.all_control_list
                0x0000000000024442       0x56 archival/lib.a(dpkg.o)
 .text.append_control_file_to_llist
                0x0000000000024498       0x64 archival/lib.a(dpkg.o)
 .text.data_extract_all_prefix
                0x00000000000244fc       0x8f archival/lib.a(dpkg.o)
 .text.filter_rename_config
                0x000000000002458b      0x127 archival/lib.a(dpkg.o)
 .text.write_buffer_no_status
                0x00000000000246b2       0x81 archival/lib.a(dpkg.o)
 .text.dpkg_deb_main
                0x0000000000024733      0x202 archival/lib.a(dpkg_deb.o)
                0x0000000000024733                dpkg_deb_main
 .text.gzip_main
                0x0000000000024935      0x11f archival/lib.a(gzip.o)
                0x0000000000024935                gzip_main
 .text.pack_gzip
                0x0000000000024a54      0x320 archival/lib.a(gzip.o)
 .text.put_32bit
                0x0000000000024d74       0x16 archival/lib.a(gzip.o)
 .text.put_16bit
                0x0000000000024d8a       0x6e archival/lib.a(gzip.o)
 .text.deflate  0x0000000000024df8      0x438 archival/lib.a(gzip.o)
 .text.flush_outbuf
                0x0000000000025230       0x22 archival/lib.a(gzip.o)
 .text.gen_codes
                0x0000000000025252       0x67 archival/lib.a(gzip.o)
 .text.bi_reverse
                0x00000000000252b9       0x1a archival/lib.a(gzip.o)
 .text.init_block
                0x00000000000252d3       0x75 archival/lib.a(gzip.o)
 .text.file_read
                0x0000000000025348       0x4a archival/lib.a(gzip.o)
 .text.fill_window_if_needed
                0x0000000000025392      0x11f archival/lib.a(gzip.o)
 .text.ct_tally
                0x00000000000254b1      0x16d archival/lib.a(gzip.o)
 .text.flush_block
                0x000000000002561e      0x256 archival/lib.a(gzip.o)
 .text.build_tree
                0x0000000000025874      0x3a8 archival/lib.a(gzip.o)
 .text.send_bits
                0x0000000000025c1c       0x3b archival/lib.a(gzip.o)
 .text.compress_block
                0x0000000000025c57      0x168 archival/lib.a(gzip.o)
 .text.bi_windup
                0x0000000000025dbf       0x4b archival/lib.a(gzip.o)
 .text.pqdownheap
                0x0000000000025e0a       0xae archival/lib.a(gzip.o)
 .text.scan_tree
                0x0000000000025eb8      0x119 archival/lib.a(gzip.o)
 .text.send_tree
                0x0000000000025fd1      0x182 archival/lib.a(gzip.o)
 .text.rpm_main
                0x0000000000026153      0x4af archival/lib.a(rpm.o)
                0x0000000000026153                rpm_main
 .text.rpm_gettags
                0x0000000000026602      0x1cf archival/lib.a(rpm.o)
 .text.rpm_getstr0
                0x00000000000267d1        0x7 archival/lib.a(rpm.o)
 .text.loop_through_files
                0x00000000000267d8       0x8f archival/lib.a(rpm.o)
 .text.fileaction_dobackup
                0x0000000000026867       0x7c archival/lib.a(rpm.o)
 .text.fileaction_setowngrp
                0x00000000000268e3       0x5f archival/lib.a(rpm.o)
 .text.rpm_getint
                0x0000000000026942       0x7d archival/lib.a(rpm.o)
 .text.rpm_getstr
                0x00000000000269bf       0x81 archival/lib.a(rpm.o)
 .text.rpm2cpio_main
                0x0000000000026a40       0x6c archival/lib.a(rpm.o)
                0x0000000000026a40                rpm2cpio_main
 .text.bsearch_rpmtag
                0x0000000000026aac        0x5 archival/lib.a(rpm.o)
 .text.tar_main
                0x0000000000026ab1      0x52d archival/lib.a(tar.o)
                0x0000000000026ab1                tar_main
 .text.append_file_list_to_list
                0x0000000000026fde       0x87 archival/lib.a(tar.o)
 .text.writeTarFile
                0x0000000000027065       0xfc archival/lib.a(tar.o)
 .text.vfork_compressor
                0x0000000000027161       0xd9 archival/lib.a(tar.o)
 .text.writeFileToTarball
                0x000000000002723a      0x578 archival/lib.a(tar.o)
 .text.putOctal
                0x00000000000277b2       0x49 archival/lib.a(tar.o)
 .text.writeLongname
                0x00000000000277fb      0x115 archival/lib.a(tar.o)
 .text.unzip_main
                0x0000000000027910      0xc12 archival/lib.a(unzip.o)
                0x0000000000027910                unzip_main
 .text.unzip_skip
                0x0000000000028522       0x2e archival/lib.a(unzip.o)
 .text.die_if_bad_fnamesize
                0x0000000000028550       0x16 archival/lib.a(unzip.o)
 .text.get_lstat_mode
                0x0000000000028566       0x47 archival/lib.a(unzip.o)
 .text.unzip_create_leading_dirs
                0x00000000000285ad       0x31 archival/lib.a(unzip.o)
 .text.my_fgets80
                0x00000000000285de       0x31 archival/lib.a(unzip.o)
 .text.chksum_and_xwrite_tar_header
                0x000000000002860f       0x68 archival/lib.a(chksum_and_xwrite_tar_header.o)
                0x000000000002860f                chksum_and_xwrite_tar_header
 .text.data_extract_all
                0x0000000000028677      0x3f1 archival/libarchive/lib.a(data_extract_all.o)
                0x0000000000028677                data_extract_all
 .text.data_extract_to_command
                0x0000000000028a68      0x187 archival/libarchive/lib.a(data_extract_to_command.o)
                0x0000000000028a68                data_extract_to_command
 .text.oct2env  0x0000000000028bef       0x28 archival/libarchive/lib.a(data_extract_to_command.o)
 .text.str2env  0x0000000000028c17       0x36 archival/libarchive/lib.a(data_extract_to_command.o)
 .text.dec2env  0x0000000000028c4d       0x36 archival/libarchive/lib.a(data_extract_to_command.o)
 .text.xputenv  0x0000000000028c83       0x11 archival/libarchive/lib.a(data_extract_to_command.o)
 .text.data_extract_to_stdout
                0x0000000000028c94       0x15 archival/libarchive/lib.a(data_extract_to_stdout.o)
                0x0000000000028c94                data_extract_to_stdout
 .text.data_skip
                0x0000000000028ca9       0x13 archival/libarchive/lib.a(data_skip.o)
                0x0000000000028ca9                data_skip
 .text.unpack_bz2_stream
                0x0000000000028cbc      0x194 archival/libarchive/lib.a(decompress_bunzip2.o)
                0x0000000000028cbc                unpack_bz2_stream
 .text.start_bunzip
                0x0000000000028e50       0xd1 archival/libarchive/lib.a(decompress_bunzip2.o)
 .text.read_bunzip
                0x0000000000028f21      0x7ba archival/libarchive/lib.a(decompress_bunzip2.o)
 .text.dealloc_bunzip
                0x00000000000296db       0x16 archival/libarchive/lib.a(decompress_bunzip2.o)
 .text.unpack_bz2_data
                0x00000000000296f1       0x74 archival/libarchive/lib.a(decompress_bunzip2.o)
                0x00000000000296f1                unpack_bz2_data
 .text.get_bits
                0x0000000000029765      0x124 archival/libarchive/lib.a(decompress_bunzip2.o)
 .text.inflate_unzip
                0x0000000000029889       0x64 archival/libarchive/lib.a(decompress_gunzip.o)
                0x0000000000029889                inflate_unzip
 .text.inflate_unzip_internal
                0x00000000000298ed      0x742 archival/libarchive/lib.a(decompress_gunzip.o)
 .text.unpack_gz_stream
                0x000000000002a02f      0x27a archival/libarchive/lib.a(decompress_gunzip.o)
                0x000000000002a02f                unpack_gz_stream
 .text.top_up   0x000000000002a2a9       0x7a archival/libarchive/lib.a(decompress_gunzip.o)
 .text.calculate_gunzip_crc
                0x000000000002a323       0x22 archival/libarchive/lib.a(decompress_gunzip.o)
 .text.inflate_codes
                0x000000000002a345      0x325 archival/libarchive/lib.a(decompress_gunzip.o)
 .text.abort_unzip
                0x000000000002a66a       0x1b archival/libarchive/lib.a(decompress_gunzip.o)
 .text.fill_bitbuffer
                0x000000000002a685      0x115 archival/libarchive/lib.a(decompress_gunzip.o)
 .text.huft_build
                0x000000000002a79a      0x533 archival/libarchive/lib.a(decompress_gunzip.o)
 .text.inflate_codes_setup
                0x000000000002accd       0x33 archival/libarchive/lib.a(decompress_gunzip.o)
 .text.huft_free
                0x000000000002ad00       0x1e archival/libarchive/lib.a(decompress_gunzip.o)
 .text.huft_free_all
                0x000000000002ad1e       0x1f archival/libarchive/lib.a(decompress_gunzip.o)
 .text.unpack_Z_stream
                0x000000000002ad3d      0x531 archival/libarchive/lib.a(decompress_uncompress.o)
                0x000000000002ad3d                unpack_Z_stream
 .text.unpack_lzma_stream
                0x000000000002b26e      0xc53 archival/libarchive/lib.a(decompress_unlzma.o)
                0x000000000002b26e                unpack_lzma_stream
 .text.rc_do_normalize
                0x000000000002bec1       0x64 archival/libarchive/lib.a(decompress_unlzma.o)
 .text.unpack_xz_stream
                0x000000000002bf25      0x2f6 archival/libarchive/lib.a(decompress_unxz.o)
                0x000000000002bf25                unpack_xz_stream
 .text.dec_main
                0x000000000002c21b      0x749 archival/libarchive/lib.a(decompress_unxz.o)
 .text.fill_temp
                0x000000000002c964       0x71 archival/libarchive/lib.a(decompress_unxz.o)
 .text.crc32_validate
                0x000000000002c9d5       0x57 archival/libarchive/lib.a(decompress_unxz.o)
 .text.index_update
                0x000000000002ca2c       0x29 archival/libarchive/lib.a(decompress_unxz.o)
 .text.xz_crc32
                0x000000000002ca55       0x20 archival/libarchive/lib.a(decompress_unxz.o)
 .text.dec_vli  0x000000000002ca75       0x57 archival/libarchive/lib.a(decompress_unxz.o)
 .text.xz_dec_lzma2_run
                0x000000000002cacc      0x680 archival/libarchive/lib.a(decompress_unxz.o)
 .text.lzma_reset
                0x000000000002d14c       0x34 archival/libarchive/lib.a(decompress_unxz.o)
 .text.lzma_main
                0x000000000002d180      0x977 archival/libarchive/lib.a(decompress_unxz.o)
 .text.dict_repeat
                0x000000000002daf7       0x7f archival/libarchive/lib.a(decompress_unxz.o)
 .text.lzma_len
                0x000000000002db76      0x1cd archival/libarchive/lib.a(decompress_unxz.o)
 .text.filter_accept_list
                0x000000000002dd43       0x1c archival/libarchive/lib.a(filter_accept_list.o)
                0x000000000002dd43                filter_accept_list
 .text.filter_accept_list_reassign
                0x000000000002dd5f       0xdd archival/libarchive/lib.a(filter_accept_list_reassign.o)
                0x000000000002dd5f                filter_accept_list_reassign
 .text.filter_accept_reject_list
                0x000000000002de3c       0x43 archival/libarchive/lib.a(filter_accept_reject_list.o)
                0x000000000002de3c                filter_accept_reject_list
 .text.find_list_entry
                0x000000000002de7f       0x31 archival/libarchive/lib.a(find_list_entry.o)
                0x000000000002de7f                find_list_entry
 .text.find_list_entry2
                0x000000000002deb0       0x86 archival/libarchive/lib.a(find_list_entry.o)
                0x000000000002deb0                find_list_entry2
 .text.get_header_cpio
                0x000000000002df36      0x411 archival/libarchive/lib.a(get_header_cpio.o)
                0x000000000002df36                get_header_cpio
 .text.get_header_tar
                0x000000000002e347      0x73b archival/libarchive/lib.a(get_header_tar.o)
                0x000000000002e347                get_header_tar
 .text.getOctal
                0x000000000002ea82       0x70 archival/libarchive/lib.a(get_header_tar.o)
 .text.die_if_bad_fnamesize
                0x000000000002eaf2       0x17 archival/libarchive/lib.a(get_header_tar.o)
 .text.get_header_tar_bz2
                0x000000000002eb09       0x35 archival/libarchive/lib.a(get_header_tar_bz2.o)
                0x000000000002eb09                get_header_tar_bz2
 .text.get_header_tar_gz
                0x000000000002eb3e       0x35 archival/libarchive/lib.a(get_header_tar_gz.o)
                0x000000000002eb3e                get_header_tar_gz
 .text.get_header_tar_lzma
                0x000000000002eb73       0x35 archival/libarchive/lib.a(get_header_tar_lzma.o)
                0x000000000002eb73                get_header_tar_lzma
 .text.get_header_tar_xz
                0x000000000002eba8       0x43 archival/libarchive/lib.a(get_header_tar_xz.o)
                0x000000000002eba8                get_header_tar_xz
 .text.header_list
                0x000000000002ebeb        0x8 archival/libarchive/lib.a(header_list.o)
                0x000000000002ebeb                header_list
 .text.header_verbose_list
                0x000000000002ebf3       0xe0 archival/libarchive/lib.a(header_verbose_list.o)
                0x000000000002ebf3                header_verbose_list
 .text.init_handle
                0x000000000002ecd3       0x53 archival/libarchive/lib.a(init_handle.o)
                0x000000000002ecd3                init_handle
 .text.init_transformer_state
                0x000000000002ed26       0x1c archival/libarchive/lib.a(open_transformer.o)
                0x000000000002ed26                init_transformer_state
 .text.check_signature16
                0x000000000002ed42       0x4b archival/libarchive/lib.a(open_transformer.o)
                0x000000000002ed42                check_signature16
 .text.transformer_write
                0x000000000002ed8d       0xa6 archival/libarchive/lib.a(open_transformer.o)
                0x000000000002ed8d                transformer_write
 .text.xtransformer_write
                0x000000000002ee33       0x18 archival/libarchive/lib.a(open_transformer.o)
                0x000000000002ee33                xtransformer_write
 .text.check_errors_in_children
                0x000000000002ee4b       0x31 archival/libarchive/lib.a(open_transformer.o)
                0x000000000002ee4b                check_errors_in_children
 .text.fork_transformer
                0x000000000002ee7c       0x82 archival/libarchive/lib.a(open_transformer.o)
                0x000000000002ee7c                fork_transformer
 .text.setup_unzip_on_fd
                0x000000000002eefe       0x26 archival/libarchive/lib.a(open_transformer.o)
                0x000000000002eefe                setup_unzip_on_fd
 .text.setup_transformer_on_fd
                0x000000000002ef24       0xa0 archival/libarchive/lib.a(open_transformer.o)
 .text.fork_transformer_and_free
                0x000000000002efc4       0x1c archival/libarchive/lib.a(open_transformer.o)
 .text.setup_lzma_on_fd
                0x000000000002efe0       0x22 archival/libarchive/lib.a(open_transformer.o)
                0x000000000002efe0                setup_lzma_on_fd
 .text.open_zipped
                0x000000000002f002       0x4f archival/libarchive/lib.a(open_transformer.o)
                0x000000000002f002                open_zipped
 .text.open_transformer
                0x000000000002f051       0x70 archival/libarchive/lib.a(open_transformer.o)
 .text.seek_by_jump
                0x000000000002f0c1       0x4a archival/libarchive/lib.a(seek_by_jump.o)
                0x000000000002f0c1                seek_by_jump
 .text.seek_by_read
                0x000000000002f10b       0x11 archival/libarchive/lib.a(seek_by_read.o)
                0x000000000002f10b                seek_by_read
 .text.unpack_ar_archive
                0x000000000002f11c       0x53 archival/libarchive/lib.a(unpack_ar_archive.o)
                0x000000000002f11c                unpack_ar_archive
 .text.strip_unsafe_prefix
                0x000000000002f16f       0x93 archival/libarchive/lib.a(unsafe_prefix.o)
                0x000000000002f16f                strip_unsafe_prefix
 .text.create_or_remember_link
                0x000000000002f202       0x91 archival/libarchive/lib.a(unsafe_symlink_target.o)
                0x000000000002f202                create_or_remember_link
 .text.create_links_from_list
                0x000000000002f293       0x92 archival/libarchive/lib.a(unsafe_symlink_target.o)
                0x000000000002f293                create_links_from_list
 .text.data_align
                0x000000000002f325       0x35 archival/libarchive/lib.a(data_align.o)
                0x000000000002f325                data_align
 .text.filter_accept_all
                0x000000000002f35a        0xc archival/libarchive/lib.a(filter_accept_all.o)
                0x000000000002f35a                filter_accept_all
 .text.get_header_ar
                0x000000000002f366      0x23d archival/libarchive/lib.a(get_header_ar.o)
                0x000000000002f366                get_header_ar
 .text.read_num
                0x000000000002f5a3       0x26 archival/libarchive/lib.a(get_header_ar.o)
 .text.header_skip
                0x000000000002f5c9        0x1 archival/libarchive/lib.a(header_skip.o)
                0x000000000002f5c9                header_skip
 .text.clear_main
                0x000000000002f5ca       0x1a console-tools/lib.a(clear.o)
                0x000000000002f5ca                clear_main
 .text.cat_main
                0x000000000002f5e4       0xca coreutils/lib.a(cat.o)
                0x000000000002f5e4                cat_main
 .text.catv     0x000000000002f6ae      0x108 coreutils/lib.a(cat.o)
 .text.chgrp_main
                0x000000000002f7b6       0x41 coreutils/lib.a(chgrp.o)
                0x000000000002f7b6                chgrp_main
 .text.chmod_main
                0x000000000002f7f7       0xc6 coreutils/lib.a(chmod.o)
                0x000000000002f7f7                chmod_main
 .text.fileAction
                0x000000000002f8bd       0x86 coreutils/lib.a(chmod.o)
 .text.chown_main
                0x000000000002f943       0xb5 coreutils/lib.a(chown.o)
                0x000000000002f943                chown_main
 .text.fileAction
                0x000000000002f9f8       0x3a coreutils/lib.a(chown.o)
 .text.chroot_main
                0x000000000002fa32       0x3f coreutils/lib.a(chroot.o)
                0x000000000002fa32                chroot_main
 .text.cksum_main
                0x000000000002fa71      0x1cb coreutils/lib.a(cksum.o)
                0x000000000002fa71                cksum_main
 .text.comm_main
                0x000000000002fc3c      0x12f coreutils/lib.a(comm.o)
                0x000000000002fc3c                comm_main
 .text.writeline
                0x000000000002fd6b       0x62 coreutils/lib.a(comm.o)
 .text.cp_main  0x000000000002fdcd      0x260 coreutils/lib.a(cp.o)
                0x000000000002fdcd                cp_main
 .text.cut_main
                0x000000000003002d      0x594 coreutils/lib.a(cut.o)
                0x000000000003002d                cut_main
 .text.cmpfunc  0x00000000000305c1        0x5 coreutils/lib.a(cut.o)
 .text.date_main
                0x00000000000305c6      0x3bf coreutils/lib.a(date.o)
                0x00000000000305c6                date_main
 .text.dd_main  0x0000000000030985      0x6a2 coreutils/lib.a(dd.o)
                0x0000000000030985                dd_main
 .text.parse_comma_flags
                0x0000000000031027       0x77 coreutils/lib.a(dd.o)
 .text.alloc_buf
                0x000000000003109e       0x12 coreutils/lib.a(dd.o)
 .text.dd_output_status
                0x00000000000310b0      0x136 coreutils/lib.a(dd.o)
 .text.dd_read  0x00000000000311e6       0x63 coreutils/lib.a(dd.o)
 .text.write_and_stats
                0x0000000000031249       0x8b coreutils/lib.a(dd.o)
 .text.clear_O_DIRECT
                0x00000000000312d4       0x44 coreutils/lib.a(dd.o)
 .text.df_main  0x0000000000031318      0x476 coreutils/lib.a(df.o)
                0x0000000000031318                df_main
 .text.dirname_main
                0x000000000003178e       0x1f coreutils/lib.a(dirname.o)
                0x000000000003178e                dirname_main
 .text.dos2unix_main
                0x00000000000317ad      0x1c6 coreutils/lib.a(dos2unix.o)
                0x00000000000317ad                dos2unix_main
 .text.du_main  0x0000000000031973      0x14a coreutils/lib.a(du.o)
                0x0000000000031973                du_main
 .text.du       0x0000000000031abd      0x1de coreutils/lib.a(du.o)
 .text.print    0x0000000000031c9b       0x3c coreutils/lib.a(du.o)
 .text.echo_main
                0x0000000000031cd7      0x15e coreutils/lib.a(echo.o)
                0x0000000000031cd7                echo_main
 .text.env_main
                0x0000000000031e35      0x100 coreutils/lib.a(env.o)
                0x0000000000031e35                env_main
 .text.expand_main
                0x0000000000031f35      0x1a0 coreutils/lib.a(expand.o)
                0x0000000000031f35                expand_main
 .text.expr_main
                0x00000000000320d5       0x7b coreutils/lib.a(expr.o)
                0x00000000000320d5                expr_main
 .text.eval     0x0000000000032150       0x64 coreutils/lib.a(expr.o)
 .text.null     0x00000000000321b4       0x2e coreutils/lib.a(expr.o)
 .text.eval1    0x00000000000321e2       0x84 coreutils/lib.a(expr.o)
 .text.nextarg  0x0000000000032266       0x3c coreutils/lib.a(expr.o)
 .text.freev    0x00000000000322a2       0x1b coreutils/lib.a(expr.o)
 .text.eval2    0x00000000000322bd      0x183 coreutils/lib.a(expr.o)
 .text.int_value
                0x0000000000032440       0x12 coreutils/lib.a(expr.o)
 .text.eval3    0x0000000000032452       0x90 coreutils/lib.a(expr.o)
 .text.toarith  0x00000000000324e2       0x57 coreutils/lib.a(expr.o)
 .text.eval4    0x0000000000032539       0xa1 coreutils/lib.a(expr.o)
 .text.arithmetic_common
                0x00000000000325da       0x87 coreutils/lib.a(expr.o)
 .text.eval5    0x0000000000032661       0x68 coreutils/lib.a(expr.o)
 .text.eval6    0x00000000000326c9      0x273 coreutils/lib.a(expr.o)
 .text.docolon  0x000000000003293c       0xe3 coreutils/lib.a(expr.o)
 .text.str_value
                0x0000000000032a1f       0x2c coreutils/lib.a(expr.o)
 .text.tostring
                0x0000000000032a4b       0x24 coreutils/lib.a(expr.o)
 .text.factor_main
                0x0000000000032a6f       0xda coreutils/lib.a(factor.o)
                0x0000000000032a6f                factor_main
 .text.factorize_numstr
                0x0000000000032b49       0x4e coreutils/lib.a(factor.o)
 .text.factorize
                0x0000000000032b97       0xbd coreutils/lib.a(factor.o)
 .text.isqrt_odd
                0x0000000000032c54       0x30 coreutils/lib.a(factor.o)
 .text.print_h  0x0000000000032c84        0x7 coreutils/lib.a(factor.o)
 .text.print_w  0x0000000000032c8b       0x2e coreutils/lib.a(factor.o)
 .text.fold_main
                0x0000000000032cb9      0x20f coreutils/lib.a(fold.o)
                0x0000000000032cb9                fold_main
 .text.write2stdout
                0x0000000000032ec8       0x14 coreutils/lib.a(fold.o)
 .text.adjust_column
                0x0000000000032edc       0x58 coreutils/lib.a(fold.o)
 .text.head_main
                0x0000000000032f34      0x341 coreutils/lib.a(head.o)
                0x0000000000032f34                head_main
 .text.link_main
                0x0000000000033275       0x5c coreutils/lib.a(link.o)
                0x0000000000033275                link_main
 .text.ln_main  0x00000000000332d1      0x22d coreutils/lib.a(ln.o)
                0x00000000000332d1                ln_main
 .text.ls_main  0x00000000000334fe      0x27e coreutils/lib.a(ls.o)
                0x00000000000334fe                ls_main
 .text.my_stat  0x000000000003377c      0x128 coreutils/lib.a(ls.o)
 .text.dnalloc  0x00000000000338a4       0x12 coreutils/lib.a(ls.o)
 .text.sort_and_display_files
                0x00000000000338b6      0x1a8 coreutils/lib.a(ls.o)
 .text.splitdnarray
                0x0000000000033a5e       0x7a coreutils/lib.a(ls.o)
 .text.count_dirs
                0x0000000000033ad8       0x5b coreutils/lib.a(ls.o)
 .text.dnsort   0x0000000000033b33       0x12 coreutils/lib.a(ls.o)
 .text.scan_and_display_dirs_recur
                0x0000000000033b45      0x1d7 coreutils/lib.a(ls.o)
 .text.display_single
                0x0000000000033d1c      0x3ec coreutils/lib.a(ls.o)
 .text.append_char
                0x0000000000034108       0x4a coreutils/lib.a(ls.o)
 .text.bold     0x0000000000034152       0x29 coreutils/lib.a(ls.o)
 .text.fgcolor  0x000000000003417b       0x29 coreutils/lib.a(ls.o)
 .text.print_name
                0x00000000000341a4       0x7d coreutils/lib.a(ls.o)
 .text.sortcmp  0x0000000000034221       0xc7 coreutils/lib.a(ls.o)
 .text.md5_sha1_sum_main
                0x00000000000342e8      0x1fa coreutils/lib.a(md5_sha1_sum.o)
                0x00000000000342e8                md5_sha1_sum_main
 .text.hash_file
                0x00000000000344e2       0xc8 coreutils/lib.a(md5_sha1_sum.o)
 .text.mkdir_main
                0x00000000000345aa       0xca coreutils/lib.a(mkdir.o)
                0x00000000000345aa                mkdir_main
 .text.mv_main  0x0000000000034674      0x2bc coreutils/lib.a(mv.o)
                0x0000000000034674                mv_main
 .text.nl_main  0x0000000000034930       0xff coreutils/lib.a(nl.o)
                0x0000000000034930                nl_main
 .text.nohup_main
                0x0000000000034a2f       0xf1 coreutils/lib.a(nohup.o)
                0x0000000000034a2f                nohup_main
 .text.printenv_main
                0x0000000000034b20       0x6c coreutils/lib.a(printenv.o)
                0x0000000000034b20                printenv_main
 .text.printf_main
                0x0000000000034b8c      0x3c7 coreutils/lib.a(printf.o)
                0x0000000000034b8c                printf_main
 .text.get_width_prec
                0x0000000000034f53       0x41 coreutils/lib.a(printf.o)
 .text.print_direc
                0x0000000000034f94      0x19a coreutils/lib.a(printf.o)
 .text.multiconvert
                0x000000000003512e       0x64 coreutils/lib.a(printf.o)
 .text.conv_strtoll
                0x0000000000035192       0x1d coreutils/lib.a(printf.o)
 .text.conv_strtoull
                0x00000000000351af       0x44 coreutils/lib.a(printf.o)
 .text.conv_strtod
                0x00000000000351f3       0x37 coreutils/lib.a(printf.o)
 .text.pwd_main
                0x000000000003522a       0x2b coreutils/lib.a(pwd.o)
                0x000000000003522a                pwd_main
 .text.readlink_main
                0x0000000000035255       0x84 coreutils/lib.a(readlink.o)
                0x0000000000035255                readlink_main
 .text.realpath_main
                0x00000000000352d9       0x62 coreutils/lib.a(realpath.o)
                0x00000000000352d9                realpath_main
 .text.rm_main  0x000000000003533b       0xbf coreutils/lib.a(rm.o)
                0x000000000003533b                rm_main
 .text.rmdir_main
                0x00000000000353fa       0xd8 coreutils/lib.a(rmdir.o)
                0x00000000000353fa                rmdir_main
 .text.seq_main
                0x00000000000354d2      0x200 coreutils/lib.a(seq.o)
                0x00000000000354d2                seq_main
 .text.shred_main
                0x00000000000356d2      0x197 coreutils/lib.a(shred.o)
                0x00000000000356d2                shred_main
 .text.shuf_main
                0x0000000000035869      0x257 coreutils/lib.a(shuf.o)
                0x0000000000035869                shuf_main
 .text.sleep_main
                0x0000000000035ac0       0x7a coreutils/lib.a(sleep.o)
                0x0000000000035ac0                sleep_main
 .text.sort_main
                0x0000000000035b3a      0x401 coreutils/lib.a(sort.o)
                0x0000000000035b3a                sort_main
 .text.add_key  0x0000000000035f3b       0x20 coreutils/lib.a(sort.o)
 .text.str2u    0x0000000000035f5b       0x32 coreutils/lib.a(sort.o)
 .text.compare_keys
                0x0000000000035f8d      0x34e coreutils/lib.a(sort.o)
 .text.get_key  0x00000000000362db      0x286 coreutils/lib.a(sort.o)
 .text.scale_suffix
                0x0000000000036561       0x44 coreutils/lib.a(sort.o)
 .text.split_main
                0x00000000000365a5      0x266 coreutils/lib.a(split.o)
                0x00000000000365a5                split_main
 .text.sum_main
                0x000000000003680b       0x8e coreutils/lib.a(sum.o)
                0x000000000003680b                sum_main
 .text.sum_file
                0x0000000000036899      0x11d coreutils/lib.a(sum.o)
 .text.tail_main
                0x00000000000369b6      0x723 coreutils/lib.a(tail.o)
                0x00000000000369b6                tail_main
 .text.eat_num  0x00000000000370d9       0x28 coreutils/lib.a(tail.o)
 .text.tail_xprint_header
                0x0000000000037101       0x1c coreutils/lib.a(tail.o)
 .text.tail_read
                0x000000000003711d       0x2a coreutils/lib.a(tail.o)
 .text.test_main
                0x0000000000037147      0x1a6 coreutils/lib.a(test.o)
                0x0000000000037147                test_main
 .text.check_operator
                0x00000000000372ed       0x87 coreutils/lib.a(test.o)
 .text.binop    0x0000000000037374      0x260 coreutils/lib.a(test.o)
 .text.oexpr    0x00000000000375d4       0x67 coreutils/lib.a(test.o)
 .text.syntax   0x000000000003763b       0x48 coreutils/lib.a(test.o)
 .text.getn     0x0000000000037683       0x67 coreutils/lib.a(test.o)
 .text.aexpr    0x00000000000376ea       0x6d coreutils/lib.a(test.o)
 .text.nexpr    0x0000000000037757      0x310 coreutils/lib.a(test.o)
 .text.touch_main
                0x0000000000037a67      0x1a3 coreutils/lib.a(touch.o)
                0x0000000000037a67                touch_main
 .text.tr_main  0x0000000000037c0a      0x239 coreutils/lib.a(tr.o)
                0x0000000000037c0a                tr_main
 .text.expand   0x0000000000037e43      0x362 coreutils/lib.a(tr.o)
 .text.tsort_main
                0x00000000000381a5      0x281 coreutils/lib.a(tsort.o)
                0x00000000000381a5                tsort_main
 .text.tty_main
                0x0000000000038426       0x2e coreutils/lib.a(tty.o)
                0x0000000000038426                tty_main
 .text.uname_main
                0x0000000000038454      0x12e coreutils/lib.a(uname.o)
                0x0000000000038454                uname_main
 .text.uniq_main
                0x0000000000038582      0x1e1 coreutils/lib.a(uniq.o)
                0x0000000000038582                uniq_main
 .text.unlink_main
                0x0000000000038763       0x2c coreutils/lib.a(unlink.o)
                0x0000000000038763                unlink_main
 .text.usleep_main
                0x000000000003878f       0x1f coreutils/lib.a(usleep.o)
                0x000000000003878f                usleep_main
 .text.baseNUM_main
                0x00000000000387ae      0x175 coreutils/lib.a(uudecode.o)
                0x00000000000387ae                baseNUM_main
 .text.wc_main  0x0000000000038923      0x30e coreutils/lib.a(wc.o)
                0x0000000000038923                wc_main
 .text.whoami_main
                0x0000000000038c31       0x27 coreutils/lib.a(whoami.o)
                0x0000000000038c31                whoami_main
 .text.cp_mv_stat2
                0x0000000000038c58       0x70 coreutils/libcoreutils/lib.a(cp_mv_stat.o)
                0x0000000000038c58                cp_mv_stat2
 .text.cp_mv_stat
                0x0000000000038cc8        0xc coreutils/libcoreutils/lib.a(cp_mv_stat.o)
                0x0000000000038cc8                cp_mv_stat
 .text.pipe_progress_main
                0x0000000000038cd4       0x82 debianutils/lib.a(pipe_progress.o)
                0x0000000000038cd4                pipe_progress_main
 .text.run_parts_main
                0x0000000000038d56      0x162 debianutils/lib.a(run_parts.o)
                0x0000000000038d56                run_parts_main
 .text.act      0x0000000000038eb8       0xda debianutils/lib.a(run_parts.o)
 .text.bb_alphasort
                0x0000000000038f92       0x1e debianutils/lib.a(run_parts.o)
 .text.which_main
                0x0000000000038fb0       0xfa debianutils/lib.a(which.o)
                0x0000000000038fb0                which_main
 .text.awk_main
                0x00000000000390aa      0x3fe editors/lib.a(awk.o)
                0x00000000000390aa                awk_main
 .text.hash_init
                0x00000000000394a8       0x26 editors/lib.a(awk.o)
 .text.hash_find
                0x00000000000394ce      0x14d editors/lib.a(awk.o)
 .text.nextword
                0x000000000003961b       0x13 editors/lib.a(awk.o)
 .text.setvar_s
                0x000000000003962e       0x26 editors/lib.a(awk.o)
 .text.setvar_i
                0x0000000000039654       0x32 editors/lib.a(awk.o)
 .text.handle_special
                0x0000000000039686      0x1ee editors/lib.a(awk.o)
 .text.setvar_u
                0x0000000000039874        0xc editors/lib.a(awk.o)
 .text.iamarray
                0x0000000000039880       0x2c editors/lib.a(awk.o)
 .text.unescape_string_in_place
                0x00000000000398ac       0x26 editors/lib.a(awk.o)
 .text.is_assignment
                0x00000000000398d2       0x6d editors/lib.a(awk.o)
 .text.parse_program
                0x000000000003993f      0x1a6 editors/lib.a(awk.o)
 .text.setari_u
                0x0000000000039ae5       0x32 editors/lib.a(awk.o)
 .text.evaluate
                0x0000000000039b17     0x10b9 editors/lib.a(awk.o)
 .text.awk_exit
                0x000000000003abd0       0x7b editors/lib.a(awk.o)
 .text.next_input_file
                0x000000000003ac4b      0x105 editors/lib.a(awk.o)
 .text.awk_getline
                0x000000000003ad50      0x35d editors/lib.a(awk.o)
 .text.incvar   0x000000000003b0ad       0x1a editors/lib.a(awk.o)
 .text.syntax_error
                0x000000000003b0c7       0x20 editors/lib.a(awk.o)
 .text.hashidx  0x000000000003b0e7       0x14 editors/lib.a(awk.o)
 .text.hash_search3
                0x000000000003b0fb       0x46 editors/lib.a(awk.o)
 .text.setvar_p
                0x000000000003b141       0x26 editors/lib.a(awk.o)
 .text.clrvar   0x000000000003b167       0x2a editors/lib.a(awk.o)
 .text.getvar_i
                0x000000000003b191       0x6e editors/lib.a(awk.o)
 .text.fsrealloc
                0x000000000003b1ff       0xa6 editors/lib.a(awk.o)
 .text.getvar_s
                0x000000000003b2a5       0x66 editors/lib.a(awk.o)
 .text.qrealloc
                0x000000000003b30b       0x21 editors/lib.a(awk.o)
 .text.split_f0
                0x000000000003b32c       0xce editors/lib.a(awk.o)
 .text.mk_splitter
                0x000000000003b3fa       0x5e editors/lib.a(awk.o)
 .text.istrue   0x000000000003b458       0x39 editors/lib.a(awk.o)
 .text.my_strtod
                0x000000000003b491        0xb editors/lib.a(awk.o)
 .text.skip_spaces
                0x000000000003b49c       0x2d editors/lib.a(awk.o)
 .text.fmt_num  0x000000000003b4c9       0xde editors/lib.a(awk.o)
 .text.awk_split
                0x000000000003b5a7      0x287 editors/lib.a(awk.o)
 .text.mk_re_node
                0x000000000003b82e       0x3f editors/lib.a(awk.o)
 .text.is_numeric
                0x000000000003b86d       0x17 editors/lib.a(awk.o)
 .text.nextchar
                0x000000000003b884       0x4d editors/lib.a(awk.o)
 .text.next_token
                0x000000000003b8d1      0x41b editors/lib.a(awk.o)
 .text.chain_until_rbrace
                0x000000000003bcec       0x2d editors/lib.a(awk.o)
 .text.hash_clear
                0x000000000003bd19       0x61 editors/lib.a(awk.o)
 .text.chain_node
                0x000000000003bd7a       0x73 editors/lib.a(awk.o)
 .text.parse_expr
                0x000000000003bded      0x366 editors/lib.a(awk.o)
 .text.chain_group
                0x000000000003c153      0x290 editors/lib.a(awk.o)
 .text.chain_expr
                0x000000000003c3e3       0x4c editors/lib.a(awk.o)
 .text.parse_lrparen_list
                0x000000000003c42f       0x12 editors/lib.a(awk.o)
 .text.chain_loop
                0x000000000003c441       0x8e editors/lib.a(awk.o)
 .text.new_node
                0x000000000003c4cf       0x1c editors/lib.a(awk.o)
 .text.hash_search
                0x000000000003c4eb       0x26 editors/lib.a(awk.o)
 .text.ptest    0x000000000003c511       0x1b editors/lib.a(awk.o)
 .text.awk_printf
                0x000000000003c52c      0x342 editors/lib.a(awk.o)
 .text.hash_remove
                0x000000000003c86e       0x81 editors/lib.a(awk.o)
 .text.copyvar  0x000000000003c8ef       0x4e editors/lib.a(awk.o)
 .text.as_regex
                0x000000000003c93d       0x7c editors/lib.a(awk.o)
 .text.nvfree   0x000000000003c9b9       0x91 editors/lib.a(awk.o)
 .text.exec_builtin
                0x000000000003ca4a      0x549 editors/lib.a(awk.o)
 .text.getvar_i_int
                0x000000000003cf93       0x6c editors/lib.a(awk.o)
 .text.do_mktime
                0x000000000003cfff       0x86 editors/lib.a(awk.o)
 .text.do_match
                0x000000000003d085       0xc5 editors/lib.a(awk.o)
 .text.awk_sub  0x000000000003d14a      0x2a7 editors/lib.a(awk.o)
 .text.cmp_main
                0x000000000003d3f1      0x22d editors/lib.a(cmp.o)
                0x000000000003d3f1                cmp_main
 .text.diff_main
                0x000000000003d61e      0x59a editors/lib.a(diff.o)
                0x000000000003d61e                diff_main
 .text.print_status
                0x000000000003dbb8       0x4e editors/lib.a(diff.o)
 .text.diffreg  0x000000000003dc06      0x6d7 editors/lib.a(diff.o)
 .text.add_to_dirlist
                0x000000000003e2dd       0x59 editors/lib.a(diff.o)
 .text.skip_dir
                0x000000000003e336       0x90 editors/lib.a(diff.o)
 .text.create_J
                0x000000000003e3c6      0x7d5 editors/lib.a(diff.o)
 .text.fetch    0x000000000003eb9b      0x117 editors/lib.a(diff.o)
 .text.read_token
                0x000000000003ecb2       0xd3 editors/lib.a(diff.o)
 .text.line_compar
                0x000000000003ed85        0xe editors/lib.a(diff.o)
 .text.seek_ft  0x000000000003ed93       0x15 editors/lib.a(diff.o)
 .text.ed_main  0x000000000003eda8      0x9db editors/lib.a(ed.o)
                0x000000000003eda8                ed_main
 .text.readLines
                0x000000000003f783      0x206 editors/lib.a(ed.o)
 .text.insertLine
                0x000000000003f989       0xba editors/lib.a(ed.o)
 .text.findLine
                0x000000000003fa43       0x92 editors/lib.a(ed.o)
 .text.setCurNum
                0x000000000003fad5       0x23 editors/lib.a(ed.o)
 .text.getNum   0x000000000003faf8      0x176 editors/lib.a(ed.o)
 .text.addLines
                0x000000000003fc6e       0x66 editors/lib.a(ed.o)
 .text.deleteLines
                0x000000000003fcd4       0xc0 editors/lib.a(ed.o)
 .text.printLines
                0x000000000003fd94       0xc1 editors/lib.a(ed.o)
 .text.searchLines
                0x000000000003fe55       0xde editors/lib.a(ed.o)
 .text.bad_nums
                0x000000000003ff33       0x2d editors/lib.a(ed.o)
 .text.findString
                0x000000000003ff60       0x89 editors/lib.a(ed.o)
 .text.patch_main
                0x000000000003ffe9      0xa06 editors/lib.a(patch.o)
                0x000000000003ffe9                patch_main
 .text.dlist_add
                0x00000000000409ef       0x47 editors/lib.a(patch.o)
 .text.fail_hunk
                0x0000000000040a36       0x81 editors/lib.a(patch.o)
 .text.finish_oldfile
                0x0000000000040ab7       0x83 editors/lib.a(patch.o)
 .text.do_line  0x0000000000040b3a       0x56 editors/lib.a(patch.o)
 .text.dlist_free
                0x0000000000040b90       0x27 editors/lib.a(patch.o)
 .text.sed_main
                0x0000000000040bb7      0x2f3 editors/lib.a(sed.o)
                0x0000000000040bb7                sed_main
 .text.cleanup_outname
                0x0000000000040eaa       0x15 editors/lib.a(sed.o)
 .text.add_cmd_block
                0x0000000000040ebf       0x56 editors/lib.a(sed.o)
 .text.add_cmd  0x0000000000040f15      0x57d editors/lib.a(sed.o)
 .text.process_files
                0x0000000000041492      0xa8c editors/lib.a(sed.o)
 .text.get_address
                0x0000000000041f1e      0x114 editors/lib.a(sed.o)
 .text.index_of_next_unescaped_regexp_delim
                0x0000000000042032       0x8e editors/lib.a(sed.o)
 .text.copy_parsing_escapes
                0x00000000000420c0       0x77 editors/lib.a(sed.o)
 .text.parse_escapes
                0x0000000000042137       0x82 editors/lib.a(sed.o)
 .text.parse_file_cmd
                0x00000000000421b9       0x6e editors/lib.a(sed.o)
 .text.sed_xfopen_w
                0x0000000000042227       0x6f editors/lib.a(sed.o)
 .text.parse_regex_delim
                0x0000000000042296       0x9d editors/lib.a(sed.o)
 .text.get_next_line
                0x0000000000042333      0x105 editors/lib.a(sed.o)
 .text.puts_maybe_newline
                0x0000000000042438       0x93 editors/lib.a(sed.o)
 .text.append   0x00000000000424cb       0x14 editors/lib.a(sed.o)
 .text.flush_append
                0x00000000000424df       0x58 editors/lib.a(sed.o)
 .text.pipe_putc
                0x0000000000042537       0x5b editors/lib.a(sed.o)
 .text.vi_main  0x0000000000042592      0x1b5 editors/lib.a(vi.o)
                0x0000000000042592                vi_main
 .text.show_help
                0x0000000000042747        0xc editors/lib.a(vi.o)
 .text.status_line_bold
                0x0000000000042753       0xd2 editors/lib.a(vi.o)
 .text.init_text_buffer
                0x0000000000042825       0xa8 editors/lib.a(vi.o)
 .text.run_cmds
                0x00000000000428cd       0x52 editors/lib.a(vi.o)
 .text.edit_file
                0x000000000004291f      0x263 editors/lib.a(vi.o)
 .text.update_filename
                0x0000000000042b82       0x4d editors/lib.a(vi.o)
 .text.file_insert
                0x0000000000042bcf      0x18b editors/lib.a(vi.o)
 .text.char_insert
                0x0000000000042d5a      0x444 editors/lib.a(vi.o)
 .text.status_line_bold_errno
                0x000000000004319e       0x27 editors/lib.a(vi.o)
 .text.text_hole_make
                0x00000000000431c5       0xc6 editors/lib.a(vi.o)
 .text.text_hole_delete
                0x000000000004328b       0xbf editors/lib.a(vi.o)
 .text.undo_push_insert
                0x000000000004334a        0xf editors/lib.a(vi.o)
 .text.undo_push
                0x0000000000043359      0x1c1 editors/lib.a(vi.o)
 .text.undo_queue_commit
                0x000000000004351a       0x40 editors/lib.a(vi.o)
 .text.begin_line
                0x000000000004355a       0x31 editors/lib.a(vi.o)
 .text.stupid_insert
                0x000000000004358b       0x1b editors/lib.a(vi.o)
 .text.refresh  0x00000000000435a6      0x460 editors/lib.a(vi.o)
 .text.get_one_char
                0x0000000000043a06       0x7d editors/lib.a(vi.o)
 .text.indent_len
                0x0000000000043a83       0x2b editors/lib.a(vi.o)
 .text.get_column
                0x0000000000043aae       0x2d editors/lib.a(vi.o)
 .text.end_line
                0x0000000000043adb       0x36 editors/lib.a(vi.o)
 .text.undo_pop
                0x0000000000043b11      0x134 editors/lib.a(vi.o)
 .text.prev_line
                0x0000000000043c45       0x27 editors/lib.a(vi.o)
 .text.query_screen_dimensions
                0x0000000000043c6c       0x46 editors/lib.a(vi.o)
 .text.place_cursor
                0x0000000000043cb2       0x5c editors/lib.a(vi.o)
 .text.count_lines
                0x0000000000043d0e       0x61 editors/lib.a(vi.o)
 .text.end_screen
                0x0000000000043d6f       0x28 editors/lib.a(vi.o)
 .text.next_line
                0x0000000000043d97       0x29 editors/lib.a(vi.o)
 .text.next_column
                0x0000000000043dc0       0x37 editors/lib.a(vi.o)
 .text.readit   0x0000000000043df7       0x51 editors/lib.a(vi.o)
 .text.go_bottom_and_clear_to_eol
                0x0000000000043e48       0x21 editors/lib.a(vi.o)
 .text.cookmode
                0x0000000000043e69       0x18 editors/lib.a(vi.o)
 .text.status_line
                0x0000000000043e81       0xa7 editors/lib.a(vi.o)
 .text.find_pair
                0x0000000000043f28       0x7b editors/lib.a(vi.o)
 .text.indicate_error
                0x0000000000043fa3       0x46 editors/lib.a(vi.o)
 .text.mysleep  0x0000000000043fe9       0x38 editors/lib.a(vi.o)
 .text.standout_start
                0x0000000000044021        0xc editors/lib.a(vi.o)
 .text.redraw   0x000000000004402d       0x3e editors/lib.a(vi.o)
 .text.standout_end
                0x000000000004406b        0xc editors/lib.a(vi.o)
 .text.show_status_line
                0x0000000000044077      0x1ac editors/lib.a(vi.o)
 .text.Hit_Return
                0x0000000000044223       0x2f editors/lib.a(vi.o)
 .text.colon    0x0000000000044252     0x12c7 editors/lib.a(vi.o)
 .text.find_line
                0x0000000000045519       0x20 editors/lib.a(vi.o)
 .text.dot_skip_over_ws
                0x0000000000045539       0x3b editors/lib.a(vi.o)
 .text.expand_args
                0x0000000000045574       0xde editors/lib.a(vi.o)
 .text.rawmode  0x0000000000045652       0x16 editors/lib.a(vi.o)
 .text.yank_delete
                0x0000000000045668       0x6e editors/lib.a(vi.o)
 .text.init_filename
                0x00000000000456d6       0x38 editors/lib.a(vi.o)
 .text.char_search
                0x000000000004570e       0xa2 editors/lib.a(vi.o)
 .text.string_insert
                0x00000000000457b0       0x54 editors/lib.a(vi.o)
 .text.file_write
                0x0000000000045804       0x81 editors/lib.a(vi.o)
 .text.text_yank
                0x0000000000045885       0x6f editors/lib.a(vi.o)
 .text.what_reg
                0x00000000000458f4       0x27 editors/lib.a(vi.o)
 .text.not_implemented
                0x000000000004591b       0x89 editors/lib.a(vi.o)
 .text.bound_dot
                0x00000000000459a4       0x3f editors/lib.a(vi.o)
 .text.mycmp    0x00000000000459e3       0x19 editors/lib.a(vi.o)
 .text.new_screen
                0x00000000000459fc       0x66 editors/lib.a(vi.o)
 .text.winch_handler
                0x0000000000045a62       0x43 editors/lib.a(vi.o)
 .text.tstp_handler
                0x0000000000045aa5       0x4a editors/lib.a(vi.o)
 .text.int_handler
                0x0000000000045aef       0x25 editors/lib.a(vi.o)
 .text.do_cmd   0x0000000000045b14     0x1607 editors/lib.a(vi.o)
 .text.dot_scroll
                0x000000000004711b       0x67 editors/lib.a(vi.o)
 .text.dot_left
                0x0000000000047182       0x25 editors/lib.a(vi.o)
 .text.move_to_col
                0x00000000000471a7       0x3e editors/lib.a(vi.o)
 .text.dot_right
                0x00000000000471e5       0x2b editors/lib.a(vi.o)
 .text.dot_begin
                0x0000000000047210       0x1c editors/lib.a(vi.o)
 .text.dot_next
                0x000000000004722c       0x1c editors/lib.a(vi.o)
 .text.yank_status
                0x0000000000047248       0x46 editors/lib.a(vi.o)
 .text.get_input_line
                0x000000000004728e       0xd1 editors/lib.a(vi.o)
 .text.find_range
                0x000000000004735f      0x368 editors/lib.a(vi.o)
 .text.dot_end  0x00000000000476c7       0x1c editors/lib.a(vi.o)
 .text.skip_thing
                0x00000000000476e3      0x139 editors/lib.a(vi.o)
 .text.dot_prev
                0x000000000004781c       0x1c editors/lib.a(vi.o)
 .text.at_eof   0x0000000000047838       0x2a editors/lib.a(vi.o)
 .text.find_main
                0x0000000000047862      0x21e findutils/lib.a(find.o)
                0x0000000000047862                find_main
 .text.parse_params
                0x0000000000047a80      0x75a findutils/lib.a(find.o)
 .text.fileAction
                0x00000000000481da       0xe0 findutils/lib.a(find.o)
 .text.alloc_action
                0x00000000000482ba       0x65 findutils/lib.a(find.o)
 .text.func_print
                0x000000000004831f        0xb findutils/lib.a(find.o)
 .text.func_print0
                0x000000000004832a       0x19 findutils/lib.a(find.o)
 .text.func_prune
                0x0000000000048343        0x4 findutils/lib.a(find.o)
 .text.func_quit
                0x0000000000048347       0x11 findutils/lib.a(find.o)
 .text.func_delete
                0x0000000000048358       0x41 findutils/lib.a(find.o)
 .text.func_empty
                0x0000000000048399       0x7d findutils/lib.a(find.o)
 .text.func_exec
                0x0000000000048416       0x7e findutils/lib.a(find.o)
 .text.func_paren
                0x0000000000048494       0x12 findutils/lib.a(find.o)
 .text.func_name
                0x00000000000484a6       0xa1 findutils/lib.a(find.o)
 .text.func_path
                0x0000000000048547       0x1f findutils/lib.a(find.o)
 .text.func_regex
                0x0000000000048566       0x48 findutils/lib.a(find.o)
 .text.func_type
                0x00000000000485ae       0x11 findutils/lib.a(find.o)
 .text.func_executable
                0x00000000000485bf       0x14 findutils/lib.a(find.o)
 .text.func_perm
                0x00000000000485d3       0x36 findutils/lib.a(find.o)
 .text.func_mtime
                0x0000000000048609       0x1d findutils/lib.a(find.o)
 .text.func_mmin
                0x0000000000048626       0x1b findutils/lib.a(find.o)
 .text.func_newer
                0x0000000000048641        0xe findutils/lib.a(find.o)
 .text.func_inum
                0x000000000004864f        0xe findutils/lib.a(find.o)
 .text.func_samefile
                0x000000000004865d       0x19 findutils/lib.a(find.o)
 .text.func_user
                0x0000000000048676        0xc findutils/lib.a(find.o)
 .text.func_group
                0x0000000000048682        0xc findutils/lib.a(find.o)
 .text.func_size
                0x000000000004868e       0x32 findutils/lib.a(find.o)
 .text.func_links
                0x00000000000486c0       0x34 findutils/lib.a(find.o)
 .text.do_exec  0x00000000000486f4      0x137 findutils/lib.a(find.o)
 .text.exec_actions
                0x000000000004882b       0x6e findutils/lib.a(find.o)
 .text.time_cmp
                0x0000000000048899       0x81 findutils/lib.a(find.o)
 .text.grep_main
                0x000000000004891a      0x347 findutils/lib.a(grep.o)
                0x000000000004891a                grep_main
 .text.load_pattern_list
                0x0000000000048c61       0x4a findutils/lib.a(grep.o)
 .text.add_grep_list_data
                0x0000000000048cab       0x11 findutils/lib.a(grep.o)
 .text.grep_file
                0x0000000000048cbc      0x59d findutils/lib.a(grep.o)
 .text.file_action_grep
                0x0000000000049259       0xbd findutils/lib.a(grep.o)
 .text.print_line
                0x0000000000049316       0xb5 findutils/lib.a(grep.o)
 .text.xargs_main
                0x00000000000493cb      0x376 findutils/lib.a(xargs.o)
                0x00000000000493cb                xargs_main
 .text.process_stdin
                0x0000000000049741      0x15b findutils/lib.a(xargs.o)
 .text.process0_stdin
                0x000000000004989c       0x74 findutils/lib.a(xargs.o)
 .text.process_stdin_with_replace
                0x0000000000049910      0x104 findutils/lib.a(xargs.o)
 .text.store_param
                0x0000000000049a14       0x48 findutils/lib.a(xargs.o)
 .text.xargs_exec
                0x0000000000049a5c      0x16a findutils/lib.a(xargs.o)
 .text.bb_ask_y_confirmation_FILE
                0x0000000000049bc6       0x44 libbb/lib.a(ask_confirmation.o)
                0x0000000000049bc6                bb_ask_y_confirmation_FILE
 .text.bb_ask_y_confirmation
                0x0000000000049c0a        0xf libbb/lib.a(ask_confirmation.o)
                0x0000000000049c0a                bb_ask_y_confirmation
 .text.bb_cat   0x0000000000049c19       0x68 libbb/lib.a(bb_cat.o)
                0x0000000000049c19                bb_cat
 .text.bb_getgroups
                0x0000000000049c81       0x8d libbb/lib.a(bb_getgroups.o)
                0x0000000000049c81                bb_getgroups
 .text.xgetpwnam
                0x0000000000049d0e       0x21 libbb/lib.a(bb_pwd.o)
                0x0000000000049d0e                xgetpwnam
 .text.xgetgrnam
                0x0000000000049d2f       0x21 libbb/lib.a(bb_pwd.o)
                0x0000000000049d2f                xgetgrnam
 .text.xgetpwuid
                0x0000000000049d50       0x1f libbb/lib.a(bb_pwd.o)
                0x0000000000049d50                xgetpwuid
 .text.xuid2uname
                0x0000000000049d6f        0xb libbb/lib.a(bb_pwd.o)
                0x0000000000049d6f                xuid2uname
 .text.uid2uname
                0x0000000000049d7a       0x14 libbb/lib.a(bb_pwd.o)
                0x0000000000049d7a                uid2uname
 .text.gid2group
                0x0000000000049d8e       0x14 libbb/lib.a(bb_pwd.o)
                0x0000000000049d8e                gid2group
 .text.uid2uname_utoa
                0x0000000000049da2       0x17 libbb/lib.a(bb_pwd.o)
                0x0000000000049da2                uid2uname_utoa
 .text.gid2group_utoa
                0x0000000000049db9       0x17 libbb/lib.a(bb_pwd.o)
                0x0000000000049db9                gid2group_utoa
 .text.xuname2uid
                0x0000000000049dd0        0xb libbb/lib.a(bb_pwd.o)
                0x0000000000049dd0                xuname2uid
 .text.xgroup2gid
                0x0000000000049ddb        0xb libbb/lib.a(bb_pwd.o)
                0x0000000000049ddb                xgroup2gid
 .text.get_ug_id
                0x0000000000049de6       0x37 libbb/lib.a(bb_pwd.o)
                0x0000000000049de6                get_ug_id
 .text.bb_pstrcmp
                0x0000000000049e1d        0xb libbb/lib.a(bb_qsort.o)
                0x0000000000049e1d                bb_pstrcmp
 .text.qsort_string_vector
                0x0000000000049e28       0x11 libbb/lib.a(bb_qsort.o)
                0x0000000000049e28                qsort_string_vector
 .text.chomp    0x0000000000049e39       0x13 libbb/lib.a(chomp.o)
                0x0000000000049e39                chomp
 .text.concat_subpath_file
                0x0000000000049e4c       0x23 libbb/lib.a(concat_subpath_file.o)
                0x0000000000049e4c                concat_subpath_file
 .text.XZALLOC_CONST_PTR
                0x0000000000049e6f       0x11 libbb/lib.a(const_hack.o)
                0x0000000000049e6f                XZALLOC_CONST_PTR
 .text.copy_file
                0x0000000000049e80      0x7a9 libbb/lib.a(copy_file.o)
                0x0000000000049e80                copy_file
 .text.ask_and_unlink
                0x000000000004a629       0xc3 libbb/lib.a(copy_file.o)
 .text.crc32_filltable
                0x000000000004a6ec       0x84 libbb/lib.a(crc32.o)
                0x000000000004a6ec                crc32_filltable
 .text.crc32_new_table_le
                0x000000000004a770        0x9 libbb/lib.a(crc32.o)
                0x000000000004a770                crc32_new_table_le
 .text.global_crc32_new_table_le
                0x000000000004a779        0xf libbb/lib.a(crc32.o)
                0x000000000004a779                global_crc32_new_table_le
 .text.crc32_block_endian1
                0x000000000004a788       0x27 libbb/lib.a(crc32.o)
                0x000000000004a788                crc32_block_endian1
 .text.crc32_block_endian0
                0x000000000004a7af       0x23 libbb/lib.a(crc32.o)
                0x000000000004a7af                crc32_block_endian0
 .text.parse_duration_str
                0x000000000004a7d2       0xed libbb/lib.a(duration.o)
                0x000000000004a7d2                parse_duration_str
 .text.sleep_for_duration
                0x000000000004a8bf       0x81 libbb/lib.a(duration.o)
                0x000000000004a8bf                sleep_for_duration
 .text.endofname
                0x000000000004a940       0x37 libbb/lib.a(endofname.o)
                0x000000000004a940                endofname
 .text.file_is_executable
                0x000000000004a977       0x4b libbb/lib.a(executable.o)
                0x000000000004a977                file_is_executable
 .text.find_executable
                0x000000000004a9c2       0x99 libbb/lib.a(executable.o)
                0x000000000004a9c2                find_executable
 .text.BB_EXECVP_or_die
                0x000000000004aa5b       0x35 libbb/lib.a(executable.o)
                0x000000000004aa5b                BB_EXECVP_or_die
 .text.fclose_if_not_stdin
                0x000000000004aa90       0x3d libbb/lib.a(fclose_nonstdin.o)
                0x000000000004aa90                fclose_if_not_stdin
 .text.fflush_stdout_and_exit
                0x000000000004aacd       0x2d libbb/lib.a(fflush_stdout_and_exit.o)
                0x000000000004aacd                fflush_stdout_and_exit
 .text.fflush_stdout_and_exit_SUCCESS
                0x000000000004aafa        0x8 libbb/lib.a(fflush_stdout_and_exit.o)
                0x000000000004aafa                fflush_stdout_and_exit_SUCCESS
 .text.xmalloc_fgets_internal
                0x000000000004ab02      0x120 libbb/lib.a(fgets_str.o)
 .text.xmalloc_fgetline_str
                0x000000000004ac22        0xa libbb/lib.a(fgets_str.o)
                0x000000000004ac22                xmalloc_fgetline_str
 .text.find_mount_point
                0x000000000004ac2c      0x137 libbb/lib.a(find_mount_point.o)
                0x000000000004ac2c                find_mount_point
 .text.bb_get_chunk_from_file
                0x000000000004ad63       0xab libbb/lib.a(get_line_from_file.o)
                0x000000000004ad63                bb_get_chunk_from_file
 .text.xmalloc_fgets
                0x000000000004ae0e        0xb libbb/lib.a(get_line_from_file.o)
                0x000000000004ae0e                xmalloc_fgets
 .text.xmalloc_fgetline
                0x000000000004ae19       0x34 libbb/lib.a(get_line_from_file.o)
                0x000000000004ae19                xmalloc_fgetline
 .text.get_shell_name
                0x000000000004ae4d       0x3f libbb/lib.a(get_shell_name.o)
                0x000000000004ae4d                get_shell_name
 .text.md5_begin
                0x000000000004ae8c       0x1c libbb/lib.a(hash_md5_sha.o)
                0x000000000004ae8c                md5_begin
 .text.md5_process_block64
                0x000000000004aea8      0x286 libbb/lib.a(hash_md5_sha.o)
 .text.md5_hash
                0x000000000004b12e       0x6f libbb/lib.a(hash_md5_sha.o)
                0x000000000004b12e                md5_hash
 .text.md5_end  0x000000000004b19d       0x24 libbb/lib.a(hash_md5_sha.o)
                0x000000000004b19d                md5_end
 .text.common64_end
                0x000000000004b1c1       0x68 libbb/lib.a(hash_md5_sha.o)
 .text.sha1_process_block64
                0x000000000004b229      0x14a libbb/lib.a(hash_md5_sha.o)
 .text.sha256_begin
                0x000000000004b373       0x5f libbb/lib.a(hash_md5_sha.o)
                0x000000000004b373                sha256_begin
 .text.sha256_process_block64
                0x000000000004b3d2      0x16a libbb/lib.a(hash_md5_sha.o)
 .text.sha1_end
                0x000000000004b53c       0x60 libbb/lib.a(hash_md5_sha.o)
                0x000000000004b53c                sha1_end
 ** fill        0x000000000004b59c        0x6
 .text.sha256_process_block64_shaNI
                0x000000000004b5a8      0x2a5 libbb/lib.a(hash_md5_sha256_x86-64_shaNI.o)
                0x000000000004b5a8                sha256_process_block64_shaNI
 .text.make_human_readable_str
                0x000000000004b84d       0xcd libbb/lib.a(human_readable.o)
                0x000000000004b84d                make_human_readable_str
 .text.smart_ulltoa5
                0x000000000004b91a      0x1a5 libbb/lib.a(human_readable.o)
                0x000000000004b91a                smart_ulltoa5
 .text.inet_cksum
                0x000000000004babf       0x33 libbb/lib.a(inet_cksum.o)
                0x000000000004babf                inet_cksum
 .text.is_in_ino_dev_hashtable
                0x000000000004baf2       0x71 libbb/lib.a(inode_hash.o)
                0x000000000004baf2                is_in_ino_dev_hashtable
 .text.add_to_ino_dev_hashtable
                0x000000000004bb63       0x96 libbb/lib.a(inode_hash.o)
                0x000000000004bb63                add_to_ino_dev_hashtable
 .text.is_directory
                0x000000000004bbf9       0x45 libbb/lib.a(isdirectory.o)
                0x000000000004bbf9                is_directory
 .text.isqrt    0x000000000004bc3e       0x2e libbb/lib.a(isqrt.o)
                0x000000000004bc3e                isqrt
 .text.new_line_input_t
                0x000000000004bc6c       0x1c libbb/lib.a(lineedit.o)
                0x000000000004bc6c                new_line_input_t
 .text.show_history
                0x000000000004bc88       0x3b libbb/lib.a(lineedit.o)
                0x000000000004bc88                show_history
 .text.free_line_input_t
                0x000000000004bcc3       0x34 libbb/lib.a(lineedit.o)
                0x000000000004bcc3                free_line_input_t
 .text.read_line_input
                0x000000000004bcf7      0xc94 libbb/lib.a(lineedit.o)
                0x000000000004bcf7                read_line_input
 .text.parse_and_put_prompt
                0x000000000004c98b      0x404 libbb/lib.a(lineedit.o)
 .text.deinit_S
                0x000000000004cd8f       0x2f libbb/lib.a(lineedit.o)
 .text.load_history
                0x000000000004cdbe      0x126 libbb/lib.a(lineedit.o)
 .text.lineedit_read_key
                0x000000000004cee4      0x102 libbb/lib.a(lineedit.o)
 .text.goto_new_line
                0x000000000004cfe6       0x27 libbb/lib.a(lineedit.o)
 .text.input_backward
                0x000000000004d00d       0xe5 libbb/lib.a(lineedit.o)
 .text.put_till_end_and_adv_cursor
                0x000000000004d0f2       0x1c libbb/lib.a(lineedit.o)
 .text.input_forward
                0x000000000004d10e       0x17 libbb/lib.a(lineedit.o)
 .text.input_backspace
                0x000000000004d125       0x23 libbb/lib.a(lineedit.o)
 .text.input_delete
                0x000000000004d148       0xad libbb/lib.a(lineedit.o)
 .text.input_tab
                0x000000000004d1f5      0x3f9 libbb/lib.a(lineedit.o)
 .text.draw_custom
                0x000000000004d5ee       0x4c libbb/lib.a(lineedit.o)
 .text.get_next_history
                0x000000000004d63a       0x36 libbb/lib.a(lineedit.o)
 .text.get_previous_history
                0x000000000004d670       0x32 libbb/lib.a(lineedit.o)
 .text.ctrl_right
                0x000000000004d6a2       0x57 libbb/lib.a(lineedit.o)
 .text.ctrl_left
                0x000000000004d6f9       0x6d libbb/lib.a(lineedit.o)
 .text.vi_Word_motion
                0x000000000004d766       0x88 libbb/lib.a(lineedit.o)
 .text.vi_word_motion
                0x000000000004d7ee       0xd6 libbb/lib.a(lineedit.o)
 .text.vi_End_motion
                0x000000000004d8c4       0x7f libbb/lib.a(lineedit.o)
 .text.vi_end_motion
                0x000000000004d943       0xdc libbb/lib.a(lineedit.o)
 .text.vi_Back_motion
                0x000000000004da1f       0x85 libbb/lib.a(lineedit.o)
 .text.vi_back_motion
                0x000000000004daa4       0xcd libbb/lib.a(lineedit.o)
 .text.beep     0x000000000004db71        0x8 libbb/lib.a(lineedit.o)
 .text.load_string
                0x000000000004db79       0x65 libbb/lib.a(lineedit.o)
 .text.put_cur_glyph_and_inc_cursor
                0x000000000004dbde       0xa9 libbb/lib.a(lineedit.o)
 .text.save_string
                0x000000000004dc87       0x4f libbb/lib.a(lineedit.o)
 .text.free_tab_completion_data
                0x000000000004dcd6       0x3b libbb/lib.a(lineedit.o)
 .text.get_homedir_or_NULL
                0x000000000004dd11       0x42 libbb/lib.a(lineedit.o)
 .text.put_prompt_custom
                0x000000000004dd53       0x31 libbb/lib.a(lineedit.o)
 .text.get_user_strings
                0x000000000004dd84       0x48 libbb/lib.a(lineedit.o)
 .text.adjust_width_and_validate_wc
                0x000000000004ddcc       0x37 libbb/lib.a(lineedit.o)
 .text.build_match_prefix
                0x000000000004de03      0x284 libbb/lib.a(lineedit.o)
 .text.complete_cmd_dir_file
                0x000000000004e087      0x3c9 libbb/lib.a(lineedit.o)
 .text.is_special_char
                0x000000000004e450       0x11 libbb/lib.a(lineedit.o)
 .text.quote_special_chars
                0x000000000004e461       0x5e libbb/lib.a(lineedit.o)
 .text.remove_chunk
                0x000000000004e4bf       0x1e libbb/lib.a(lineedit.o)
 .text.add_match
                0x000000000004e4dd       0x60 libbb/lib.a(lineedit.o)
 .text.save_command_ps_at_cur_history
                0x000000000004e53d       0x5d libbb/lib.a(lineedit.o)
 .text.BB_ispunct
                0x000000000004e59a       0x25 libbb/lib.a(lineedit.o)
 .text.BB_isalnum_or_underscore
                0x000000000004e5bf       0x26 libbb/lib.a(lineedit.o)
 .text.BB_PUTCHAR
                0x000000000004e5e5       0x3a libbb/lib.a(lineedit.o)
 .text.bb_make_directory
                0x000000000004e61f      0x1ba libbb/lib.a(make_directory.o)
                0x000000000004e61f                bb_make_directory
 .text.bb_mode_string
                0x000000000004e7d9       0x89 libbb/lib.a(mode_string.o)
                0x000000000004e7d9                bb_mode_string
 .text.bb_parse_mode
                0x000000000004e862      0x1fe libbb/lib.a(parse_mode.o)
                0x000000000004e862                bb_parse_mode
 .text.percent_decode_in_place
                0x000000000004ea60       0xbc libbb/lib.a(percent_decode.o)
                0x000000000004ea60                percent_decode_in_place
 .text.hex_to_bin
                0x000000000004eb1c       0x1b libbb/lib.a(percent_decode.o)
 .text.bb_perror_nomsg_and_die
                0x000000000004eb37        0x9 libbb/lib.a(perror_nomsg_and_die.o)
                0x000000000004eb37                bb_perror_nomsg_and_die
 .text.print_numbered_lines
                0x000000000004eb40       0x9d libbb/lib.a(print_numbered_lines.o)
                0x000000000004eb40                print_numbered_lines
 .text.fputc_printable
                0x000000000004ebdd       0x65 libbb/lib.a(printable.o)
                0x000000000004ebdd                fputc_printable
 .text.visible  0x000000000004ec42       0x55 libbb/lib.a(printable.o)
                0x000000000004ec42                visible
 .text.printable_string2
                0x000000000004ec97       0x37 libbb/lib.a(printable_string.o)
                0x000000000004ec97                printable_string2
 .text.printable_string
                0x000000000004ecce        0xa libbb/lib.a(printable_string.o)
                0x000000000004ecce                printable_string
 .text.bb_process_escape_sequence
                0x000000000004ecd8       0xea libbb/lib.a(process_escape_sequence.o)
                0x000000000004ecd8                bb_process_escape_sequence
 .text.get_cached_username
                0x000000000004edc2       0x10 libbb/lib.a(procps.o)
                0x000000000004edc2                get_cached_username
 .text.get_cached
                0x000000000004edd2       0xbe libbb/lib.a(procps.o)
 .text.get_cached_groupname
                0x000000000004ee90       0x11 libbb/lib.a(procps.o)
                0x000000000004ee90                get_cached_groupname
 .text.free_procps_scan
                0x000000000004eea1       0x27 libbb/lib.a(procps.o)
                0x000000000004eea1                free_procps_scan
 .text.procps_scan
                0x000000000004eec8      0x3a1 libbb/lib.a(procps.o)
                0x000000000004eec8                procps_scan
 .text.read_to_buf
                0x000000000004f269       0x56 libbb/lib.a(procps.o)
 .text.bb_progress_init
                0x000000000004f2bf       0x37 libbb/lib.a(progress.o)
                0x000000000004f2bf                bb_progress_init
 .text.bb_progress_update
                0x000000000004f2f6      0x23a libbb/lib.a(progress.o)
                0x000000000004f2f6                bb_progress_update
 .text.read_key
                0x000000000004f530      0x2d6 libbb/lib.a(read_key.o)
                0x000000000004f530                read_key
 .text.safe_read_key
                0x000000000004f806       0x34 libbb/lib.a(read_key.o)
                0x000000000004f806                safe_read_key
 .text.read_key_ungets
                0x000000000004f83a       0x32 libbb/lib.a(read_key.o)
                0x000000000004f83a                read_key_ungets
 .text.nonblock_immune_read
                0x000000000004f86c       0x65 libbb/lib.a(read_printf.o)
                0x000000000004f86c                nonblock_immune_read
 .text.xmalloc_reads
                0x000000000004f8d1       0xda libbb/lib.a(read_printf.o)
                0x000000000004f8d1                xmalloc_reads
 .text.xmalloc_read_with_initial_buf
                0x000000000004f9ab       0xea libbb/lib.a(read_printf.o)
                0x000000000004f9ab                xmalloc_read_with_initial_buf
 .text.xmalloc_read
                0x000000000004fa95        0x9 libbb/lib.a(read_printf.o)
                0x000000000004fa95                xmalloc_read
 .text.xmalloc_open_read_close
                0x000000000004fa9e       0x37 libbb/lib.a(read_printf.o)
                0x000000000004fa9e                xmalloc_open_read_close
 .text.xread    0x000000000004fad5       0x21 libbb/lib.a(read_printf.o)
                0x000000000004fad5                xread
 .text.xread_char
                0x000000000004faf6       0x1d libbb/lib.a(read_printf.o)
                0x000000000004faf6                xread_char
 .text.recursive_action
                0x000000000004fb13       0x55 libbb/lib.a(recursive_action.o)
                0x000000000004fb13                recursive_action
 .text.true_action
                0x000000000004fb68        0x4 libbb/lib.a(recursive_action.o)
 .text.recursive_action1
                0x000000000004fb6c      0x17c libbb/lib.a(recursive_action.o)
 .text.remove_file
                0x000000000004fce8      0x284 libbb/lib.a(remove_file.o)
                0x000000000004fce8                remove_file
 .text.count_strstr
                0x000000000004ff6c       0x59 libbb/lib.a(replace.o)
                0x000000000004ff6c                count_strstr
 .text.xmalloc_substitute_string
                0x000000000004ffc5       0xa8 libbb/lib.a(replace.o)
                0x000000000004ffc5                xmalloc_substitute_string
 .text.safe_gethostname
                0x000000000005006d       0x32 libbb/lib.a(safe_gethostname.o)
                0x000000000005006d                safe_gethostname
 .text.safe_poll
                0x000000000005009f       0x58 libbb/lib.a(safe_poll.o)
                0x000000000005009f                safe_poll
 .text.single_argv
                0x00000000000500f7       0x43 libbb/lib.a(single_argv.o)
                0x00000000000500f7                single_argv
 .text.skip_whitespace
                0x000000000005013a       0x22 libbb/lib.a(skip_whitespace.o)
                0x000000000005013a                skip_whitespace
 .text.skip_non_whitespace
                0x000000000005015c       0x20 libbb/lib.a(skip_whitespace.o)
                0x000000000005015c                skip_non_whitespace
 .text.str_tolower
                0x000000000005017c       0x29 libbb/lib.a(str_tolower.o)
                0x000000000005017c                str_tolower
 .text.bb_clk_tck
                0x00000000000501a5        0x8 libbb/lib.a(sysconf.o)
                0x00000000000501a5                bb_clk_tck
 .text.get_signum
                0x00000000000501ad       0x74 libbb/lib.a(u_signal_names.o)
                0x00000000000501ad                get_signum
 .text.get_signame
                0x0000000000050221       0x1b libbb/lib.a(u_signal_names.o)
                0x0000000000050221                get_signame
 .text.print_signames
                0x000000000005023c       0x3a libbb/lib.a(u_signal_names.o)
                0x000000000005023c                print_signames
 .text.reinit_unicode
                0x0000000000050276       0x3e libbb/lib.a(unicode.o)
                0x0000000000050276                reinit_unicode
 .text.init_unicode
                0x00000000000502b4       0x43 libbb/lib.a(unicode.o)
                0x00000000000502b4                init_unicode
 .text.bb_wcrtomb
                0x00000000000502f7       0x14 libbb/lib.a(unicode.o)
                0x00000000000502f7                bb_wcrtomb
 .text.wcrtomb_internal
                0x000000000005030b       0x52 libbb/lib.a(unicode.o)
 .text.bb_wcstombs
                0x000000000005035d       0xf2 libbb/lib.a(unicode.o)
                0x000000000005035d                bb_wcstombs
 .text.bb_mbstowcs
                0x000000000005044f       0xb0 libbb/lib.a(unicode.o)
                0x000000000005044f                bb_mbstowcs
 .text.mbstowc_internal
                0x00000000000504ff       0x77 libbb/lib.a(unicode.o)
 .text.bb_wcwidth
                0x0000000000050576      0x1a6 libbb/lib.a(unicode.o)
                0x0000000000050576                bb_wcwidth
 .text.in_interval_table
                0x000000000005071c       0x4e libbb/lib.a(unicode.o)
 .text.unicode_strlen
                0x000000000005076a       0x24 libbb/lib.a(unicode.o)
                0x000000000005076a                unicode_strlen
 .text.unicode_strwidth
                0x000000000005078e       0x1c libbb/lib.a(unicode.o)
                0x000000000005078e                unicode_strwidth
 .text.unicode_conv_to_printable
                0x00000000000507aa        0xc libbb/lib.a(unicode.o)
                0x00000000000507aa                unicode_conv_to_printable
 .text.unicode_conv_to_printable2
                0x00000000000507b6      0x1f9 libbb/lib.a(unicode.o)
 .text.unicode_conv_to_printable_fixedwidth
                0x00000000000509af        0xf libbb/lib.a(unicode.o)
                0x00000000000509af                unicode_conv_to_printable_fixedwidth
 .text.bb_uuencode
                0x00000000000509be       0x8e libbb/lib.a(uuencode.o)
                0x00000000000509be                bb_uuencode
 .text.decode_base64
                0x0000000000050a4c       0xf1 libbb/lib.a(uuencode.o)
                0x0000000000050a4c                decode_base64
 .text.read_base64
                0x0000000000050b3d      0x10f libbb/lib.a(uuencode.o)
                0x0000000000050b3d                read_base64
 .text.fopen_or_warn
                0x0000000000050c4c       0x27 libbb/lib.a(wfopen.o)
                0x0000000000050c4c                fopen_or_warn
 .text.fopen_for_read
                0x0000000000050c73        0xc libbb/lib.a(wfopen.o)
                0x0000000000050c73                fopen_for_read
 .text.xfopen_for_read
                0x0000000000050c7f        0xc libbb/lib.a(wfopen.o)
                0x0000000000050c7f                xfopen_for_read
 .text.xfopen_for_write
                0x0000000000050c8b        0xc libbb/lib.a(wfopen.o)
                0x0000000000050c8b                xfopen_for_write
 .text.xfdopen_helper
                0x0000000000050c97       0x2e libbb/lib.a(wfopen.o)
 .text.xfdopen_for_write
                0x0000000000050cc5        0xb libbb/lib.a(wfopen.o)
                0x0000000000050cc5                xfdopen_for_write
 .text.fopen_or_warn_stdin
                0x0000000000050cd0       0x2e libbb/lib.a(wfopen_input.o)
                0x0000000000050cd0                fopen_or_warn_stdin
 .text.xfopen_stdin
                0x0000000000050cfe       0x12 libbb/lib.a(wfopen_input.o)
                0x0000000000050cfe                xfopen_stdin
 .text.open_or_warn_stdin
                0x0000000000050d10       0x21 libbb/lib.a(wfopen_input.o)
                0x0000000000050d10                open_or_warn_stdin
 .text.xopen_stdin
                0x0000000000050d31       0x11 libbb/lib.a(wfopen_input.o)
                0x0000000000050d31                xopen_stdin
 .text.setsockopt_int
                0x0000000000050d42       0x16 libbb/lib.a(xconnect.o)
                0x0000000000050d42                setsockopt_int
 .text.setsockopt_SOL_SOCKET_int
                0x0000000000050d58        0xc libbb/lib.a(xconnect.o)
                0x0000000000050d58                setsockopt_SOL_SOCKET_int
 .text.setsockopt_SOL_SOCKET_1
                0x0000000000050d64        0x8 libbb/lib.a(xconnect.o)
                0x0000000000050d64                setsockopt_SOL_SOCKET_1
 .text.setsockopt_broadcast
                0x0000000000050d6c        0x8 libbb/lib.a(xconnect.o)
                0x0000000000050d6c                setsockopt_broadcast
 .text.setsockopt_bindtodevice
                0x0000000000050d74       0x50 libbb/lib.a(xconnect.o)
                0x0000000000050d74                setsockopt_bindtodevice
 .text.xconnect
                0x0000000000050dc4       0x41 libbb/lib.a(xconnect.o)
                0x0000000000050dc4                xconnect
 .text.set_nport
                0x0000000000050e05        0xb libbb/lib.a(xconnect.o)
                0x0000000000050e05                set_nport
 .text.str2sockaddr
                0x0000000000050e10      0x19c libbb/lib.a(xconnect.o)
 .text.xhost2sockaddr
                0x0000000000050fac        0x8 libbb/lib.a(xconnect.o)
                0x0000000000050fac                xhost2sockaddr
 .text.xdotted2sockaddr
                0x0000000000050fb4        0x8 libbb/lib.a(xconnect.o)
                0x0000000000050fb4                xdotted2sockaddr
 .text.xconnect_stream
                0x0000000000050fbc       0x2c libbb/lib.a(xconnect.o)
                0x0000000000050fbc                xconnect_stream
 .text.sockaddr2str
                0x0000000000050fe8       0x67 libbb/lib.a(xconnect.o)
 .text.xmalloc_sockaddr2hostonly_noport
                0x000000000005104f        0x8 libbb/lib.a(xconnect.o)
                0x000000000005104f                xmalloc_sockaddr2hostonly_noport
 .text.xmalloc_sockaddr2dotted
                0x0000000000051057        0x8 libbb/lib.a(xconnect.o)
                0x0000000000051057                xmalloc_sockaddr2dotted
 .text.xmalloc_sockaddr2dotted_noport
                0x000000000005105f        0x8 libbb/lib.a(xconnect.o)
                0x000000000005105f                xmalloc_sockaddr2dotted_noport
 .text.xrealloc_vector_helper
                0x0000000000051067       0x5e libbb/lib.a(xrealloc_vector.o)
                0x0000000000051067                xrealloc_vector_helper
 .text.regcomp_or_errmsg
                0x00000000000510c5       0x53 libbb/lib.a(xregcomp.o)
                0x00000000000510c5                regcomp_or_errmsg
 .text.xregcomp
                0x0000000000051118       0x24 libbb/lib.a(xregcomp.o)
                0x0000000000051118                xregcomp
 .text.auto_string
                0x000000000005113c       0x40 libbb/lib.a(auto_string.o)
                0x000000000005113c                auto_string
 .text.get_uidgid
                0x000000000005117c       0xf9 libpwdgrp/lib.a(uidgid_get.o)
                0x000000000005117c                get_uidgid
 .text.xget_uidgid
                0x0000000000051275       0x20 libpwdgrp/lib.a(uidgid_get.o)
                0x0000000000051275                xget_uidgid
 .text.parse_chown_usergroup_or_die
                0x0000000000051295       0x82 libpwdgrp/lib.a(uidgid_get.o)
                0x0000000000051295                parse_chown_usergroup_or_die
 .text.diet_freeaddrinfo
                0x0000000000051317       0x16 libres/lib.a(freeaddrinfo.o)
                0x0000000000051317                diet_freeaddrinfo
 .text.diet_getaddrinfo
                0x000000000005132d      0x42a libres/lib.a(getaddrinfo.o)
                0x000000000005132d                diet_getaddrinfo
 .text.diet_gethostbyname2_r
                0x0000000000051757       0xa5 libres/lib.a(gethostbyname2_r.o)
                0x0000000000051757                diet_gethostbyname2_r
 .text.diet_res_init
                0x00000000000517fc       0x15 libres/lib.a(res_init.o)
                0x00000000000517fc                diet_res_init
 .text.__dns_make_fd
                0x0000000000051811       0x56 libres/lib.a(dnscruft.o)
                0x0000000000051811                __dns_make_fd
 .text.__dns_readstartfiles
                0x0000000000051867      0x188 libres/lib.a(dnscruft.o)
                0x0000000000051867                __dns_readstartfiles
 .text.__dns_decodename
                0x00000000000519ef      0x140 libres/lib.a(dnscruft.o)
                0x00000000000519ef                __dns_decodename
 .text.__dns_gethostbyx_r
                0x0000000000051b2f      0x37b libres/lib.a(dnscruft2.o)
                0x0000000000051b2f                __dns_gethostbyx_r
 .text.diet_res_query
                0x0000000000051eaa      0x1df libres/lib.a(res_query.o)
                0x0000000000051eaa                diet_res_query
 .text.diet_res_mkquery
                0x0000000000052089      0x129 libres/lib.a(res_mkquery.o)
                0x0000000000052089                diet_res_mkquery

.rodata         0x00000000000521c0     0xab75
 .rodata.applet_nameofs
                0x00000000000521c0        0x6 libbb/lib.a(appletlib.o)
                0x00000000000521c0                applet_nameofs
 .rodata.applet_names
                0x00000000000521c6      0x25e libbb/lib.a(appletlib.o)
                0x00000000000521c6                applet_names
 .rodata.applet_flags
                0x0000000000052424       0x1b libbb/lib.a(appletlib.o)
                0x0000000000052424                applet_flags
 .rodata.applet_install_loc
                0x000000000005243f       0x35 libbb/lib.a(appletlib.o)
                0x000000000005243f                applet_install_loc
 .rodata.packed_usage
                0x0000000000052474     0x25e8 libbb/lib.a(appletlib.o)
 ** merge strings
                0x0000000000054a5c     0x49e9
 .rodata.usr_bin
                0x0000000000059445        0xa libbb/lib.a(appletlib.o)
 .rodata.usr_sbin
                0x000000000005944f        0xb libbb/lib.a(appletlib.o)
 .rodata.bb_banner
                0x000000000005945a       0x2a libbb/lib.a(messages.o)
                0x000000000005945a                bb_banner
 .rodata.bb_msg_memory_exhausted
                0x0000000000059484        0xe libbb/lib.a(messages.o)
                0x0000000000059484                bb_msg_memory_exhausted
 .rodata.bb_msg_invalid_date
                0x0000000000059492       0x12 libbb/lib.a(messages.o)
                0x0000000000059492                bb_msg_invalid_date
 .rodata.bb_msg_unknown
                0x00000000000594a4        0xa libbb/lib.a(messages.o)
                0x00000000000594a4                bb_msg_unknown
 .rodata.bb_msg_can_not_create_raw_socket
                0x00000000000594ae       0x18 libbb/lib.a(messages.o)
                0x00000000000594ae                bb_msg_can_not_create_raw_socket
 .rodata.bb_msg_perm_denied_are_you_root
                0x00000000000594c6       0x22 libbb/lib.a(messages.o)
                0x00000000000594c6                bb_msg_perm_denied_are_you_root
 .rodata.bb_msg_requires_arg
                0x00000000000594e8       0x18 libbb/lib.a(messages.o)
                0x00000000000594e8                bb_msg_requires_arg
 .rodata.bb_msg_invalid_arg_to
                0x0000000000059500       0x1e libbb/lib.a(messages.o)
                0x0000000000059500                bb_msg_invalid_arg_to
 .rodata.bb_msg_standard_input
                0x000000000005951e        0xf libbb/lib.a(messages.o)
                0x000000000005951e                bb_msg_standard_input
 .rodata.bb_msg_standard_output
                0x000000000005952d       0x10 libbb/lib.a(messages.o)
                0x000000000005952d                bb_msg_standard_output
 .rodata.bb_hexdigits_upcase
                0x000000000005953d       0x11 libbb/lib.a(messages.o)
                0x000000000005953d                bb_hexdigits_upcase
 .rodata.bb_busybox_exec_path
                0x000000000005954e        0xf libbb/lib.a(messages.o)
                0x000000000005954e                bb_busybox_exec_path
 .rodata.bb_default_login_shell
                0x000000000005955d        0x9 libbb/lib.a(messages.o)
                0x000000000005955d                bb_default_login_shell
 .rodata.bb_PATH_root_path
                0x0000000000059566       0x49 libbb/lib.a(messages.o)
                0x0000000000059566                bb_PATH_root_path
 .rodata.const_int_0
                0x00000000000595b0        0x4 libbb/lib.a(messages.o)
                0x00000000000595b0                const_int_0
 .rodata.bb_null_long_options
                0x00000000000595c0       0x20 libbb/lib.a(getopt32.o)
 .rodata.parse_datestr
                0x00000000000595e0       0x2c libbb/lib.a(time.o)
 .rodata.bkm_suffixes
                0x000000000005960c       0x20 libbb/lib.a(xatonum.o)
                0x000000000005960c                bkm_suffixes
 .rodata.cwbkMG_suffixes
                0x000000000005962c       0x80 libbb/lib.a(xatonum.o)
                0x000000000005962c                cwbkMG_suffixes
 .rodata.kmg_i_suffixes
                0x00000000000596ac       0x80 libbb/lib.a(xatonum.o)
                0x00000000000596ac                kmg_i_suffixes
 ** merge constants
                0x0000000000059730       0x40
 .rodata.ping   0x0000000000059770       0x4c networking/lib.a(ping.o)
 .rodata..L.str.1
                0x00000000000597bc       0x28 networking/lib.a(ping.o)
 .rodata.wget_main.wget_longopts
                0x00000000000597e4       0xb9 networking/lib.a(wget.o)
 .rodata..L.str.2
                0x000000000005989d       0x2d networking/lib.a(wget.o)
 .rodata.wget_user_headers
                0x00000000000598ca       0x4c networking/lib.a(wget.o)
 .rodata.P_HTTPS
                0x0000000000059916        0x6 networking/lib.a(wget.o)
 .rodata.download_one_url.keywords
                0x000000000005991c       0x2b networking/lib.a(wget.o)
 .rodata.P_HTTP
                0x0000000000059947        0x5 networking/lib.a(wget.o)
 .rodata.P_FTP  0x000000000005994c        0x4 networking/lib.a(wget.o)
 .rodata.P_FTPS
                0x0000000000059950        0x5 networking/lib.a(wget.o)
 .rodata.rec_CHANGE_CIPHER_SPEC
                0x0000000000059955        0x6 networking/lib.a(tls.o)
 .rodata.send_client_hello_and_alloc_hsd.ciphers
                0x0000000000059960       0x14 networking/lib.a(tls.o)
 .rodata.send_client_hello_and_alloc_hsd.extensions
                0x0000000000059980       0x16 networking/lib.a(tls.o)
 .rodata.find_key_in_der_cert.OID_RSA_KEY_ALG
                0x0000000000059996        0xd networking/lib.a(tls.o)
 .rodata.find_key_in_der_cert.OID_ECDSA_KEY_ALG
                0x00000000000599a3        0xb networking/lib.a(tls.o)
 ** merge constants
                0x00000000000599b0       0xf0
 .rodata.KeyExpansion.Rcon
                0x0000000000059aa0        0xa networking/lib.a(tls_aes.o)
 .rodata.sbox   0x0000000000059ab0      0x100 networking/lib.a(tls_aes.o)
 .rodata.rsbox  0x0000000000059bb0      0x100 networking/lib.a(tls_aes.o)
 .rodata.sp_256_ecc_mulmod_base_8.p256_base_bin
                0x0000000000059cb0       0x40 networking/lib.a(tls_sp_c32.o)
 .rodata.p256_mod
                0x0000000000059cf0       0x20 networking/lib.a(tls_sp_c32.o)
 .rodata.readcmd
                0x0000000000059d10       0x20 shell/lib.a(ash.o)
 .rodata.evaltree
                0x0000000000059d30       0x3c shell/lib.a(ash.o)
 .rodata.argstr
                0x0000000000059d6c       0x28 shell/lib.a(ash.o)
 .rodata.evalvar
                0x0000000000059d94       0x18 shell/lib.a(ash.o)
 .rodata.varvalue
                0x0000000000059dac       0x80 shell/lib.a(ash.o)
 .rodata.cmdtxt
                0x0000000000059e2c       0x6c shell/lib.a(ash.o)
 .rodata.cmdputs
                0x0000000000059e98       0x28 shell/lib.a(ash.o)
 .rodata.redirect
                0x0000000000059ec0       0x18 shell/lib.a(ash.o)
 .rodata.readtoken1
                0x0000000000059ed8       0x34 shell/lib.a(ash.o)
 .rodata.parse_command
                0x0000000000059f0c       0x70 shell/lib.a(ash.o)
 .rodata.calcsize
                0x0000000000059f7c       0x6c shell/lib.a(ash.o)
 .rodata.copynode
                0x0000000000059fe8       0x6c shell/lib.a(ash.o)
 .rodata.argstr.spclchars
                0x000000000005a054        0xc shell/lib.a(ash.o)
 .rodata.dolatstr
                0x000000000005a060        0x7 shell/lib.a(ash.o)
 .rodata.SIT.spec_symbls
                0x000000000005a067       0x1a shell/lib.a(ash.o)
 .rodata.SIT.syntax_index_table
                0x000000000005a081       0x19 shell/lib.a(ash.o)
 .rodata.S_I_T  0x000000000005a09a       0x16 shell/lib.a(ash.o)
 ** merge constants
                0x000000000005a0b0        0x4
 .rodata..L.str.163
                0x000000000005a0b4        0xa shell/lib.a(ash.o)
 .rodata.rmescapes.qchars
                0x000000000005a0be        0x4 shell/lib.a(ash.o)
 .rodata.cmdputs.vstype
                0x000000000005a0c2       0x30 shell/lib.a(ash.o)
 .rodata.hasmeta.chars
                0x000000000005a0f2        0x7 shell/lib.a(ash.o)
 .rodata.readtoken1.types
                0x000000000005a0f9        0x6 shell/lib.a(ash.o)
 .rodata.decode_dollar_squote.C_escapes
                0x000000000005a0ff       0x12 shell/lib.a(ash.o)
 .rodata.xxreadtoken_chars
                0x000000000005a111        0x7 shell/lib.a(ash.o)
 .rodata.xxreadtoken_tokens
                0x000000000005a118        0xa shell/lib.a(ash.o)
 .rodata.nodesize
                0x000000000005a122       0x1b shell/lib.a(ash.o)
 .rodata.timescmd_str
                0x000000000005a13d        0x9 shell/lib.a(ash.o)
 .rodata.umaskcmd.permuser
                0x000000000005a146        0x3 shell/lib.a(ash.o)
 .rodata.arith_apply
                0x000000000005a14c       0xbc shell/lib.a(math.o)
 .rodata.op_tokens
                0x000000000005a208       0x8d shell/lib.a(math.o)
 .rodata.defifsvar
                0x000000000005a295        0x8 shell/lib.a(shell_common.o)
                0x000000000005a295                defifsvar
 .rodata.defoptindvar
                0x000000000005a29d        0x9 shell/lib.a(shell_common.o)
                0x000000000005a29d                defoptindvar
 .rodata.ulimit_opt_string
                0x000000000005a2a6       0x32 shell/lib.a(shell_common.o)
 .rodata.limits_help
                0x000000000005a2d8      0x11e shell/lib.a(shell_common.o)
 .rodata.limits_tbl
                0x000000000005a3f6       0x1e shell/lib.a(shell_common.o)
 .rodata.limit_chars
                0x000000000005a414       0x10 shell/lib.a(shell_common.o)
 .rodata..L.str.1
                0x000000000005a424       0x14 archival/lib.a(ar.o)
 .rodata.gunzip_longopts
                0x000000000005a438       0x2f archival/lib.a(bbunzip.o)
 .rodata..L.str
                0x000000000005a467       0x17 archival/lib.a(bzip2.o)
 .rodata.incs   0x000000000005a480       0x38 archival/lib.a(bzip2.o)
 .rodata..L.str.1
                0x000000000005a4b8       0x81 archival/lib.a(cpio.o)
 .rodata.fill_package_struct
                0x000000000005a53c       0x28 archival/lib.a(dpkg.o)
 .rodata.test_version
                0x000000000005a564       0x18 archival/lib.a(dpkg.o)
 .rodata.dpkg_main.dpkg_longopts
                0x000000000005a57c       0x70 archival/lib.a(dpkg.o)
 .rodata.fill_package_struct.field_names
                0x000000000005a5ec       0x5e archival/lib.a(dpkg.o)
 .rodata..L.str.69
                0x000000000005a64a       0x1b archival/lib.a(dpkg.o)
 .rodata..L.str.72
                0x000000000005a665       0x1a archival/lib.a(dpkg.o)
 .rodata..L.str.10
                0x000000000005a67f       0x35 archival/lib.a(dpkg_deb.o)
 .rodata.gzip_main.gzip_level_config
                0x000000000005a6c0       0x18 archival/lib.a(gzip.o)
 .rodata.gzip_longopts
                0x000000000005a6d8       0x69 archival/lib.a(gzip.o)
 .rodata.extra_lbits
                0x000000000005a741       0x1d archival/lib.a(gzip.o)
 .rodata.extra_dbits
                0x000000000005a75e       0x1e archival/lib.a(gzip.o)
 .rodata.extra_blbits
                0x000000000005a77c       0x13 archival/lib.a(gzip.o)
 .rodata.bl_order
                0x000000000005a78f       0x13 archival/lib.a(gzip.o)
 .rodata.rpm_main
                0x000000000005a7a4       0x3c archival/lib.a(rpm.o)
 .rodata.writeFileToTarball
                0x000000000005a7e0       0x28 archival/lib.a(tar.o)
 .rodata..L.str.2
                0x000000000005a808       0x41 archival/lib.a(tar.o)
 .rodata.tar_longopts
                0x000000000005a849      0x145 archival/lib.a(tar.o)
 .rodata.unzip_main
                0x000000000005a990       0x54 archival/lib.a(unzip.o)
 .rodata.unzip_main.extn
                0x000000000005a9e4        0xa archival/lib.a(unzip.o)
 .rodata.cpio_TRAILER
                0x000000000005a9ee        0xb archival/libarchive/lib.a(common.o)
                0x000000000005a9ee                cpio_TRAILER
 .rodata.data_extract_all
                0x000000000005a9fc       0x30 archival/libarchive/lib.a(data_extract_all.o)
 .rodata.lit    0x000000000005aa2c       0x5e archival/libarchive/lib.a(decompress_gunzip.o)
 .rodata.dist   0x000000000005aa8a       0x5e archival/libarchive/lib.a(decompress_gunzip.o)
 .rodata.border
                0x000000000005aae8       0x13 archival/libarchive/lib.a(decompress_gunzip.o)
 .rodata.mask_bits
                0x000000000005aafc       0x22 archival/libarchive/lib.a(decompress_gunzip.o)
 .rodata.unpack_lzma_stream.next_state
                0x000000000005ab1e        0xc archival/libarchive/lib.a(decompress_unlzma.o)
 .rodata.dec_main
                0x000000000005ab2c       0x28 archival/libarchive/lib.a(decompress_unxz.o)
 .rodata.xz_dec_lzma2_run
                0x000000000005ab54       0x24 archival/libarchive/lib.a(decompress_unxz.o)
 .rodata.get_header_tar
                0x000000000005ab78       0x20 archival/libarchive/lib.a(get_header_tar.o)
 .rodata..L.str.2
                0x000000000005ab98        0x5 archival/libarchive/lib.a(get_header_tar.o)
 .rodata..L.str
                0x000000000005ab9d        0xe coreutils/lib.a(cat.o)
 .rodata..L.str.1
                0x000000000005abab        0x6 coreutils/lib.a(chmod.o)
 .rodata..L.str
                0x000000000005abb1        0x7 coreutils/lib.a(chown.o)
 .rodata.chown_longopts
                0x000000000005abb8       0x2c coreutils/lib.a(chown.o)
 ** merge constants
                0x000000000005abe4        0x8
 .rodata..L.str
                0x000000000005abec       0x38 coreutils/lib.a(cp.o)
 .rodata..L.str.1
                0x000000000005ac24       0xd5 coreutils/lib.a(cp.o)
 .rodata..L.str
                0x000000000005acf9       0x30 coreutils/lib.a(cut.o)
 .rodata.cut_main._op_on_field
                0x000000000005ad29       0x1f coreutils/lib.a(cut.o)
 .rodata..L.str
                0x000000000005ad48       0x23 coreutils/lib.a(date.o)
 .rodata.date_longopts
                0x000000000005ad6b       0x35 coreutils/lib.a(date.o)
 .rodata.date_main.isoformats
                0x000000000005ada0       0x1f coreutils/lib.a(date.o)
 .rodata.dd_main
                0x000000000005adc0       0x30 coreutils/lib.a(dd.o)
 .rodata.dd_main.keywords
                0x000000000005adf0       0x3a coreutils/lib.a(dd.o)
 .rodata.dd_main.conv_words
                0x000000000005ae2a       0x21 coreutils/lib.a(dd.o)
 .rodata.dd_main.iflag_words
                0x000000000005ae4b       0x29 coreutils/lib.a(dd.o)
 .rodata.dd_main.oflag_words
                0x000000000005ae74       0x1a coreutils/lib.a(dd.o)
 .rodata.dd_main.status_words
                0x000000000005ae8e        0xd coreutils/lib.a(dd.o)
 .rodata..L.str.1
                0x000000000005ae9b       0x1d coreutils/lib.a(df.o)
 .rodata..L.str
                0x000000000005aeb8        0xe coreutils/lib.a(dos2unix.o)
 .rodata..L.str.1
                0x000000000005aec6       0x2f coreutils/lib.a(du.o)
 .rodata..L.str.1
                0x000000000005aef5       0x25 coreutils/lib.a(env.o)
 .rodata..L.str.2
                0x000000000005af1a       0x12 coreutils/lib.a(expand.o)
 .rodata.eval6  0x000000000005af2c       0x10 coreutils/lib.a(expr.o)
 .rodata.eval6.keywords
                0x000000000005af3c       0x21 coreutils/lib.a(expr.o)
 .rodata.packed_wheel
                0x000000000005af60       0xc0 coreutils/lib.a(factor.o)
 .rodata.head_opts
                0x000000000005b020        0x7 coreutils/lib.a(head.o)
 .rodata..L.str
                0x000000000005b027        0x5 coreutils/lib.a(link.o)
 .rodata..L.str.1
                0x000000000005b02c        0xd coreutils/lib.a(ln.o)
 .rodata.ls_main.color_str
                0x000000000005b039       0x22 coreutils/lib.a(ls.o)
 .rodata.ls_main.ls_longopts
                0x000000000005b05b       0x2f coreutils/lib.a(ls.o)
 .rodata..L.str
                0x000000000005b08a       0x63 coreutils/lib.a(ls.o)
 .rodata..L.str.24
                0x000000000005b0ed       0x11 coreutils/lib.a(ls.o)
 .rodata..L.str.25
                0x000000000005b0fe       0x11 coreutils/lib.a(ls.o)
 .rodata..L.str.26
                0x000000000005b10f       0x11 coreutils/lib.a(ls.o)
 .rodata..L.str
                0x000000000005b120        0xf coreutils/lib.a(md5_sha1_sum.o)
 .rodata..L.str.1
                0x000000000005b12f       0x1c coreutils/lib.a(mkdir.o)
 .rodata..L.str
                0x000000000005b14b       0x25 coreutils/lib.a(mv.o)
 .rodata..L.str.1
                0x000000000005b170       0x57 coreutils/lib.a(mv.o)
 .rodata.mv_main.fmt
                0x000000000005b1c7       0x2d coreutils/lib.a(mv.o)
 .rodata.nl_main.nl_longopts
                0x000000000005b1f4       0x6a coreutils/lib.a(nl.o)
 .rodata.print_direc
                0x000000000005b260       0x58 coreutils/lib.a(printf.o)
 .rodata.print_formatted.format_chars
                0x000000000005b2b8        0xe coreutils/lib.a(printf.o)
 .rodata..L.str
                0x000000000005b2c6        0xa coreutils/lib.a(readlink.o)
 .rodata..L.str
                0x000000000005b2d0        0xf coreutils/lib.a(rm.o)
 .rodata..L.str.1
                0x000000000005b2df       0x30 coreutils/lib.a(rmdir.o)
 .rodata..L.str
                0x000000000005b30f        0xf coreutils/lib.a(shred.o)
 .rodata..L.str
                0x000000000005b31e       0x14 coreutils/lib.a(shuf.o)
 .rodata.compare_keys
                0x000000000005b334       0x24 coreutils/lib.a(sort.o)
 .rodata.sort_opt_str
                0x000000000005b358       0x26 coreutils/lib.a(sort.o)
 .rodata.scale_suffix.suffix
                0x000000000005b37e        0x9 coreutils/lib.a(sort.o)
 .rodata..L.str
                0x000000000005b387        0xc coreutils/lib.a(split.o)
 .rodata.split_suffixes
                0x000000000005b394       0x28 coreutils/lib.a(split.o)
 ** merge constants
                0x000000000005b3bc       0x20
 .rodata.binop  0x000000000005b3dc       0x14 coreutils/lib.a(test.o)
 .rodata.check_operator.no_op
                0x000000000005b3f0        0x2 coreutils/lib.a(test.o)
 .rodata.ops_texts
                0x000000000005b3f2       0x85 coreutils/lib.a(test.o)
 .rodata.ops_table
                0x000000000005b478       0x56 coreutils/lib.a(test.o)
 .rodata.touch_main.touch_longopts
                0x000000000005b4ce       0x31 coreutils/lib.a(touch.o)
 .rodata..L.str
                0x000000000005b4ff       0x1a coreutils/lib.a(touch.o)
 .rodata..L.str
                0x000000000005b519        0xa coreutils/lib.a(tr.o)
 .rodata.expand.classes
                0x000000000005b523       0x52 coreutils/lib.a(tr.o)
 .rodata.uname_main.uname_longopts
                0x000000000005b575       0x89 coreutils/lib.a(uname.o)
 .rodata..L.str
                0x000000000005b5fe        0x5 coreutils/lib.a(unlink.o)
 .rodata..L.str
                0x000000000005b603        0xa coreutils/lib.a(uudecode.o)
 .rodata..L.str.1
                0x000000000005b60d        0xa debianutils/lib.a(run_parts.o)
 .rodata.runparts_longopts
                0x000000000005b617       0x37 debianutils/lib.a(run_parts.o)
 .rodata..L.str.1
                0x000000000005b64e        0x6 debianutils/lib.a(which.o)
 .rodata.evaluate
                0x000000000005b654      0x100 editors/lib.a(awk.o)
 .rodata.exec_builtin
                0x000000000005b754       0x48 editors/lib.a(awk.o)
 .rodata.vNames
                0x000000000005b79c       0x6b editors/lib.a(awk.o)
 .rodata.vValues
                0x000000000005b807       0x19 editors/lib.a(awk.o)
 .rodata.PRIMES
                0x000000000005b820        0xa editors/lib.a(awk.o)
 .rodata.EMSG_INV_FMT
                0x000000000005b82a       0x19 editors/lib.a(awk.o)
 .rodata.EMSG_UNEXP_TOKEN
                0x000000000005b843       0x11 editors/lib.a(awk.o)
 .rodata.EMSG_UNEXP_EOS
                0x000000000005b854       0x19 editors/lib.a(awk.o)
 .rodata.tokenlist
                0x000000000005b86d      0x1c0 editors/lib.a(awk.o)
 .rodata.tokeninfo
                0x000000000005ba30      0x190 editors/lib.a(awk.o)
 .rodata.EMSG_TOO_FEW_ARGS
                0x000000000005bbc0       0x12 editors/lib.a(awk.o)
 .rodata.EMSG_NOT_ARRAY
                0x000000000005bbd2        0xd editors/lib.a(awk.o)
 .rodata.EMSG_POSSIBLE_ERROR
                0x000000000005bbdf       0x16 editors/lib.a(awk.o)
 .rodata.EMSG_UNDEF_FUNC
                0x000000000005bbf5       0x1b editors/lib.a(awk.o)
 .rodata.EMSG_NEGATIVE_FIELD
                0x000000000005bc10       0x19 editors/lib.a(awk.o)
 .rodata.EMSG_DIV_BY_ZERO
                0x000000000005bc29       0x11 editors/lib.a(awk.o)
 .rodata.cmp_main.cmp_longopts
                0x000000000005bc3a       0x24 editors/lib.a(cmp.o)
 .rodata..L.str.1
                0x000000000005bc5e       0x17 editors/lib.a(cmp.o)
 .rodata.fmt_l_opt
                0x000000000005bc75       0x15 editors/lib.a(cmp.o)
 .rodata.fmt_differ
                0x000000000005bc8a       0x21 editors/lib.a(cmp.o)
 .rodata.fmt_eof
                0x000000000005bcab       0x10 editors/lib.a(cmp.o)
 .rodata..L.str
                0x000000000005bcbb       0x1c editors/lib.a(diff.o)
 .rodata.diff_longopts
                0x000000000005bcd7       0xfd editors/lib.a(diff.o)
 .rodata.ed_main
                0x000000000005bdd4       0x68 editors/lib.a(ed.o)
 .rodata.patch_main.patch_longopts
                0x000000000005be3c       0x41 editors/lib.a(patch.o)
 .rodata.process_files
                0x000000000005be80       0xd8 editors/lib.a(sed.o)
 .rodata.sed_main.sed_longopts
                0x000000000005bf58       0x43 editors/lib.a(sed.o)
 .rodata..L.str.2
                0x000000000005bf9b       0x11 editors/lib.a(sed.o)
 .rodata.semicolon_whitespace
                0x000000000005bfac        0x7 editors/lib.a(sed.o)
 .rodata.parse_cmd_args.cmd_letters
                0x000000000005bfb3       0x1c editors/lib.a(sed.o)
 .rodata.undo_pop
                0x000000000005bfd0       0x10 editors/lib.a(vi.o)
 .rodata.do_cmd
                0x000000000005bfe0      0x22c editors/lib.a(vi.o)
 .rodata.skip_thing
                0x000000000005c20c       0x14 editors/lib.a(vi.o)
 .rodata..L.str.76
                0x000000000005c220       0x4b editors/lib.a(vi.o)
 .rodata.modifying_cmds
                0x000000000005c26b       0x16 editors/lib.a(vi.o)
 .rodata.parse_params
                0x000000000005c284       0xbc findutils/lib.a(find.o)
 .rodata.parse_params.params
                0x000000000005c340       0xf6 findutils/lib.a(find.o)
 .rodata.parse_params.find_suffixes
                0x000000000005c438       0x30 findutils/lib.a(find.o)
 .rodata..L.str
                0x000000000005c468       0x30 findutils/lib.a(grep.o)
 .rodata..L.str.1
                0x000000000005c498        0x9 findutils/lib.a(grep.o)
 .rodata..L.str.2
                0x000000000005c4a1       0x13 findutils/lib.a(xargs.o)
 .rodata.duration_suffixes
                0x000000000005c4b4       0x28 libbb/lib.a(duration.o)
 .rodata.init256
                0x000000000005c4dc       0x28 libbb/lib.a(hash_md5_sha.o)
 .rodata.md5_process_block64.C_array
                0x000000000005c504      0x100 libbb/lib.a(hash_md5_sha.o)
 .rodata.md5_process_block64.P_array
                0x000000000005c604       0x30 libbb/lib.a(hash_md5_sha.o)
 .rodata.sha_K  0x000000000005c638      0x100 libbb/lib.a(hash_md5_sha.o)
 ** merge constants
                0x000000000005c740      0x100
 .rodata.make_human_readable_str.unit_chars
                0x000000000005c840        0x9 libbb/lib.a(human_readable.o)
 .rodata.read_line_input
                0x000000000005c84c      0x1dc libbb/lib.a(lineedit.o)
 .rodata.parse_and_put_prompt
                0x000000000005ca28       0x3c libbb/lib.a(lineedit.o)
 .rodata.mode_chars
                0x000000000005ca64        0x7 libbb/lib.a(mode_string.o)
 ** merge constants
                0x000000000005ca6c        0x8
 .rodata.bb_parse_mode.perm_mask
                0x000000000005ca74        0xc libbb/lib.a(parse_mode.o)
 .rodata.bb_parse_mode.who_chars
                0x000000000005ca80        0x5 libbb/lib.a(parse_mode.o)
 .rodata.bb_parse_mode.perm_chars
                0x000000000005ca85        0x7 libbb/lib.a(parse_mode.o)
 .rodata.bb_process_escape_sequence.charmap
                0x000000000005ca8c       0x14 libbb/lib.a(process_escape_sequence.o)
 .rodata.signals
                0x000000000005caa0       0xe0 libbb/lib.a(u_signal_names.o)
 .rodata.bb_wcwidth.combining
                0x000000000005cb80       0x94 libbb/lib.a(unicode.o)
 .rodata.bb_wcwidth.combining1
                0x000000000005cc14       0xb8 libbb/lib.a(unicode.o)
 .rodata.bb_wcwidth.combining0x10000
                0x000000000005cccc       0x28 libbb/lib.a(unicode.o)
 .rodata.bb_uuenc_tbl_base64
                0x000000000005ccf4       0x41 libbb/lib.a(uuencode.o)
                0x000000000005ccf4                bb_uuenc_tbl_base64

.eh_frame       0x000000000005cd38       0xa4
 ** eh_frame    0x000000000005cd38       0xa0
 .eh_frame      0x000000000005cdd8        0x4 /home/pangbai/tmp/ndk/x86_64/sysroot//usr/lib/x86_64-linux-android/24/crtend_android.o

.eh_frame_hdr   0x000000000005cddc       0x34
 ** eh_frame_hdr
                0x000000000005cddc       0x34

.preinit_array  0x000000000005ec50       0x10
 .preinit_array
                0x000000000005ec50        0x8 /home/pangbai/tmp/ndk/x86_64/sysroot//usr/lib/x86_64-linux-android/24/crtbegin_dynamic.o
                0x000000000005ec50                __PREINIT_ARRAY__
 .preinit_array
                0x000000000005ec58        0x8 /home/pangbai/tmp/ndk/x86_64/sysroot//usr/lib/x86_64-linux-android/24/crtend_android.o

.init_array     0x000000000005ec60       0x10
 .init_array    0x000000000005ec60        0x8 /home/pangbai/tmp/ndk/x86_64/sysroot//usr/lib/x86_64-linux-android/24/crtbegin_dynamic.o
                0x000000000005ec60                __INIT_ARRAY__
 .init_array    0x000000000005ec68        0x8 /home/pangbai/tmp/ndk/x86_64/sysroot//usr/lib/x86_64-linux-android/24/crtend_android.o

.fini_array     0x000000000005ec70       0x10
 .fini_array    0x000000000005ec70        0x8 /home/pangbai/tmp/ndk/x86_64/sysroot//usr/lib/x86_64-linux-android/24/crtbegin_dynamic.o
                0x000000000005ec70                __FINI_ARRAY__
 .fini_array    0x000000000005ec78        0x8 /home/pangbai/tmp/ndk/x86_64/sysroot//usr/lib/x86_64-linux-android/24/crtend_android.o

.data.rel.ro    0x000000000005ec80      0x9b8
 .data.rel.ro.applet_main
                0x000000000005ec80      0x350 libbb/lib.a(appletlib.o)
                0x000000000005ec80                applet_main
 .data.rel.ro.install_dir
                0x000000000005efd0       0x18 libbb/lib.a(appletlib.o)
 .data.rel.ro.bb_argv_dash
                0x000000000005efe8       0x10 libbb/lib.a(getopt32.o)
                0x000000000005efe8                bb_argv_dash
 .data.rel.ro.varinit_data
                0x000000000005eff8      0x150 shell/lib.a(ash.o)
 .data.rel.ro.builtintab
                0x000000000005f150      0x2d0 shell/lib.a(ash.o)
 .data.rel.ro.tokname_array
                0x000000000005f420       0xf0 shell/lib.a(ash.o)
 .data.rel.ro.optletters_optnames
                0x000000000005f510       0x88 shell/lib.a(ash.o)
 .data.rel.ro.evalcommand.null_bltin
                0x000000000005f598       0x10 shell/lib.a(ash.o)
 .data.rel.ro.all_control_files
                0x000000000005f5a8       0x50 archival/lib.a(dpkg.o)
 .data.rel.ro.tar_var
                0x000000000005f5f8       0x40 archival/libarchive/lib.a(data_extract_to_command.o)

.dynamic        0x000000000005f638      0x210
 ** dynamic     0x000000000005f638      0x210

.got            0x000000000005f848       0x80
 ** GOT         0x000000000005f848       0x80

.got.plt        0x000000000005f8c8      0x730
 ** GOT PLT     0x000000000005f8c8      0x730
 ** GOT IRELATIVE PLT
                0x000000000005fff8        0x0
 ** GOT         0x000000000005fff8        0x0

.data           0x0000000000060000       0x28
 .data.xfunc_error_retval
                0x0000000000060000        0x1 libbb/lib.a(default_error_retval.o)
                0x0000000000060000                xfunc_error_retval
 .data.logmode  0x0000000000060001        0x1 libbb/lib.a(verror_msg.o)
                0x0000000000060001                logmode
 .data.msg_eol  0x0000000000060008        0x8 libbb/lib.a(verror_msg.o)
                0x0000000000060008                msg_eol
 .data.builtinloc
                0x0000000000060010        0x4 shell/lib.a(ash.o)
 .data.g_parsefile
                0x0000000000060018        0x8 shell/lib.a(ash.o)
 .data.ttyfd    0x0000000000060020        0x4 shell/lib.a(ash.o)
 .data.__dns_fd
                0x0000000000060024        0x4 libres/lib.a(dnscruft.o)
                0x0000000000060024                __dns_fd

.bss            0x0000000000060030      0xa00
 .bss           0x0000000000060030        0x8 /home/pangbai/tmp/ndk/x86_64/sysroot//usr/lib/x86_64-linux-android/24/crtbegin_dynamic.o
                0x0000000000060030                __dso_handle
 .bss.die_jmp   0x0000000000060040       0x58 libbb/lib.a(vfork_daemon_rexec.o)
 .bss.local_buf
                0x0000000000060098        0xc libbb/lib.a(xfuncs.o)
 .bss.atab      0x00000000000600a8        0x8 shell/lib.a(ash.o)
 .bss.cmdtable  0x00000000000600b0        0x8 shell/lib.a(ash.o)
 .bss.line_input_state
                0x00000000000600b8        0x8 shell/lib.a(ash.o)
 .bss.commandname
                0x00000000000600c0        0x8 shell/lib.a(ash.o)
 .bss.basepf    0x00000000000600c8       0x88 shell/lib.a(ash.o)
 .bss.evalskip  0x0000000000060150        0x1 shell/lib.a(ash.o)
 .bss.loopnest  0x0000000000060154        0x4 shell/lib.a(ash.o)
 .bss.ifsfirst  0x0000000000060158       0x18 shell/lib.a(ash.o)
 .bss.ifslastp  0x0000000000060170        0x8 shell/lib.a(ash.o)
 .bss.doing_jobctl
                0x0000000000060178        0x1 shell/lib.a(ash.o)
 .bss.initialpgrp
                0x000000000006017c        0x4 shell/lib.a(ash.o)
 .bss.checkkwd  0x0000000000060180        0x1 shell/lib.a(ash.o)
 .bss.localvar_stack
                0x0000000000060188        0x8 shell/lib.a(ash.o)
 .bss.setinteractive.is_interactive
                0x0000000000060190        0x1 shell/lib.a(ash.o)
 .bss.argptr    0x0000000000060198        0x8 shell/lib.a(ash.o)
 .bss.optptr    0x00000000000601a0        0x8 shell/lib.a(ash.o)
 .bss.optionarg
                0x00000000000601a8        0x8 shell/lib.a(ash.o)
 .bss.pathopt   0x00000000000601b0        0x8 shell/lib.a(ash.o)
 .bss.curjob    0x00000000000601b8        0x8 shell/lib.a(ash.o)
 .bss.njobs     0x00000000000601c0        0x4 shell/lib.a(ash.o)
 .bss.jobtab    0x00000000000601c8        0x8 shell/lib.a(ash.o)
 .bss.skipcount
                0x00000000000601d0        0x4 shell/lib.a(ash.o)
 .bss.lastcmdentry
                0x00000000000601d8        0x8 shell/lib.a(ash.o)
 .bss.funcline  0x00000000000601e0        0x4 shell/lib.a(ash.o)
 .bss.argbackq  0x00000000000601e8        0x8 shell/lib.a(ash.o)
 .bss.expdest   0x00000000000601f0        0x8 shell/lib.a(ash.o)
 .bss.exparg    0x00000000000601f8       0x10 shell/lib.a(ash.o)
 .bss.cmdnextc  0x0000000000060208        0x8 shell/lib.a(ash.o)
 .bss.wordtext  0x0000000000060210        0x8 shell/lib.a(ash.o)
 .bss.backquotelist
                0x0000000000060218        0x8 shell/lib.a(ash.o)
 .bss.heredoclist
                0x0000000000060220        0x8 shell/lib.a(ash.o)
 .bss.doprompt  0x0000000000060228        0x1 shell/lib.a(ash.o)
 .bss.lasttoken
                0x0000000000060229        0x1 shell/lib.a(ash.o)
 .bss.quoteflag
                0x000000000006022a        0x1 shell/lib.a(ash.o)
 .bss.needprompt
                0x000000000006022b        0x1 shell/lib.a(ash.o)
 .bss.heredoc   0x0000000000060230        0x8 shell/lib.a(ash.o)
 .bss.redirnode
                0x0000000000060238        0x8 shell/lib.a(ash.o)
 .bss.tokpushback
                0x0000000000060240        0x1 shell/lib.a(ash.o)
 .bss.cmdedit_prompt
                0x0000000000060248        0x8 shell/lib.a(ash.o)
 .bss.funcblock
                0x0000000000060250        0x8 shell/lib.a(ash.o)
 .bss.funcstring_end
                0x0000000000060258        0x8 shell/lib.a(ash.o)
 .bss.sockfd    0x0000000000060260        0x4 dowork/lib.a(dowork.o)
                0x0000000000060260                sockfd
 .bss.msize     0x0000000000060264        0x4 dowork/lib.a(dowork.o)
                0x0000000000060264                msize
 .bss.progress  0x0000000000060268        0x4 dowork/lib.a(dowork.o)
                0x0000000000060268                progress
 .bss.filesize  0x0000000000060270        0x8 dowork/lib.a(dowork.o)
                0x0000000000060270                filesize
 .bss.islock    0x0000000000060278        0x1 dowork/lib.a(dowork.o)
                0x0000000000060278                islock
 .bss.strip_unsafe_prefix.warned
                0x0000000000060279        0x1 archival/libarchive/lib.a(unsafe_prefix.o)
 .bss.key_separator
                0x000000000006027a        0x1 coreutils/lib.a(sort.o)
 .bss.key_list  0x0000000000060280        0x8 coreutils/lib.a(sort.o)
 .bss.shaNI     0x0000000000060288        0x1 libbb/lib.a(hash_md5_sha.o)
 .bss.ino_dev_hashtable
                0x0000000000060290        0x8 libbb/lib.a(inode_hash.o)
 .bss.cache_user_group
                0x0000000000060298        0x8 libbb/lib.a(procps.o)
 .bss.auto_string.saved
                0x00000000000602a0       0x20 libbb/lib.a(auto_string.o)
 .bss.auto_string.cur_saved
                0x00000000000602c0        0x1 libbb/lib.a(auto_string.o)
 ** common      0x00000000000602c8      0x768

.comment        0x0000000000000000       0xb6
 ** merge strings
                0x0000000000000000       0xb6

.debug_str      0x0000000000000000    0x128d2
 ** merge strings
                0x0000000000000000    0x128d2

.debug_loc      0x0000000000000000    0x7b261
 .debug_loc     0x0000000000000000      0x7b5 libbb/lib.a(appletlib.o)
 .debug_loc     0x00000000000007b5      0x46b libbb/lib.a(compare_string_array.o)
 .debug_loc     0x0000000000000c20       0x8f libbb/lib.a(concat_path_file.o)
 .debug_loc     0x0000000000000caf      0x10b libbb/lib.a(get_last_path_component.o)
 .debug_loc     0x0000000000000dba       0x36 libbb/lib.a(last_char_is.o)
 .debug_loc     0x0000000000000df0       0xd8 libbb/lib.a(perror_msg.o)
 .debug_loc     0x0000000000000ec8      0x35a libbb/lib.a(verror_msg.o)
 .debug_loc     0x0000000000001222      0x404 libbb/lib.a(vfork_daemon_rexec.o)
 .debug_loc     0x0000000000001626      0xc1b libbb/lib.a(xfuncs.o)
 .debug_loc     0x0000000000002241     0x1b2b libbb/lib.a(xfuncs_printf.o)
 .debug_loc     0x0000000000003d6c      0x522 libbb/lib.a(xreadlink.o)
 .debug_loc     0x000000000000428e      0x3a4 libbb/lib.a(copyfd.o)
 .debug_loc     0x0000000000004632       0xfb libbb/lib.a(full_write.o)
 .debug_loc     0x000000000000472d      0xa1e libbb/lib.a(getopt32.o)
 .debug_loc     0x000000000000514b      0x3f8 libbb/lib.a(llist.o)
 .debug_loc     0x0000000000005543      0x327 libbb/lib.a(read.o)
 .debug_loc     0x000000000000586a       0xc2 libbb/lib.a(safe_strncpy.o)
 .debug_loc     0x000000000000592c       0xc5 libbb/lib.a(safe_write.o)
 .debug_loc     0x00000000000059f1      0x46a libbb/lib.a(signals.o)
 .debug_loc     0x0000000000005e5b      0x6c9 libbb/lib.a(time.o)
 .debug_loc     0x0000000000006524     0x1556 libbb/lib.a(xatonum.o)
 .debug_loc     0x0000000000007a7a       0xa5 libbb/lib.a(xgetcwd.o)
 .debug_loc     0x0000000000007b1f      0x511 libbb/lib.a(bb_strtonum.o)
 .debug_loc     0x0000000000008030      0x14a miscutils/lib.a(readahead.o)
 .debug_loc     0x000000000000817a      0x29a networking/lib.a(nslookup.o)
 .debug_loc     0x0000000000008414      0x865 networking/lib.a(ping.o)
 .debug_loc     0x0000000000008c79     0x15d6 networking/lib.a(wget.o)
 .debug_loc     0x000000000000a24f       0x8f networking/lib.a(parse_pasv_epsv.o)
 .debug_loc     0x000000000000a2de     0x28dc networking/lib.a(tls.o)
 .debug_loc     0x000000000000cbba      0xddd networking/lib.a(tls_aes.o)
 .debug_loc     0x000000000000d997      0x2ce networking/lib.a(tls_aesgcm.o)
 .debug_loc     0x000000000000dc65      0xa95 networking/lib.a(tls_fe.o)
 .debug_loc     0x000000000000e6fa     0x2bd8 networking/lib.a(tls_pstm.o)
 .debug_loc     0x00000000000112d2      0x37c networking/lib.a(tls_pstm_montgomery_reduce.o)
 .debug_loc     0x000000000001164e      0x62b networking/lib.a(tls_pstm_mul_comba.o)
 .debug_loc     0x0000000000011c79      0x699 networking/lib.a(tls_pstm_sqr_comba.o)
 .debug_loc     0x0000000000012312      0x6b3 networking/lib.a(tls_rsa.o)
 .debug_loc     0x00000000000129c5     0x1939 networking/lib.a(tls_sp_c32.o)
 .debug_loc     0x00000000000142fe      0x3f0 procps/lib.a(kill.o)
 .debug_loc     0x00000000000146ee      0x109 procps/lib.a(lsof.o)
 .debug_loc     0x00000000000147f7    0x13557 shell/lib.a(ash.o)
 .debug_loc     0x0000000000027d4e      0x121 shell/lib.a(cttyhack.o)
 .debug_loc     0x0000000000027e6f     0x106e shell/lib.a(math.o)
 .debug_loc     0x0000000000028edd       0x92 shell/lib.a(random.o)
 .debug_loc     0x0000000000028f6f      0xcb4 shell/lib.a(shell_common.o)
 .debug_loc     0x0000000000029c23      0x11c dowork/lib.a(dowork.o)
 .debug_loc     0x0000000000029d3f      0x3cb archival/lib.a(ar.o)
 .debug_loc     0x000000000002a10a      0x9bd archival/lib.a(bbunzip.o)
 .debug_loc     0x000000000002aac7     0x4182 archival/lib.a(bzip2.o)
 .debug_loc     0x000000000002ec49      0x5ba archival/lib.a(cpio.o)
 .debug_loc     0x000000000002f203     0x3a7b archival/lib.a(dpkg.o)
 .debug_loc     0x0000000000032c7e      0x169 archival/lib.a(dpkg_deb.o)
 .debug_loc     0x0000000000032de7     0x1f1e archival/lib.a(gzip.o)
 .debug_loc     0x0000000000034d05      0xac9 archival/lib.a(rpm.o)
 .debug_loc     0x00000000000357ce      0xfae archival/lib.a(tar.o)
 .debug_loc     0x000000000003677c     0x1607 archival/lib.a(unzip.o)
 .debug_loc     0x0000000000037d83       0xec archival/lib.a(chksum_and_xwrite_tar_header.o)
 .debug_loc     0x0000000000037e6f      0x417 archival/libarchive/lib.a(data_extract_all.o)
 .debug_loc     0x0000000000038286      0x272 archival/libarchive/lib.a(data_extract_to_command.o)
 .debug_loc     0x00000000000384f8       0x23 archival/libarchive/lib.a(data_extract_to_stdout.o)
 .debug_loc     0x000000000003851b       0x23 archival/libarchive/lib.a(data_skip.o)
 .debug_loc     0x000000000003853e     0x14dd archival/libarchive/lib.a(decompress_bunzip2.o)
 .debug_loc     0x0000000000039a1b     0x1d0c archival/libarchive/lib.a(decompress_gunzip.o)
 .debug_loc     0x000000000003b727      0xc0f archival/libarchive/lib.a(decompress_uncompress.o)
 .debug_loc     0x000000000003c336     0x185c archival/libarchive/lib.a(decompress_unlzma.o)
 .debug_loc     0x000000000003db92     0x28dd archival/libarchive/lib.a(decompress_unxz.o)
 .debug_loc     0x000000000004046f       0x23 archival/libarchive/lib.a(filter_accept_list.o)
 .debug_loc     0x0000000000040492       0x59 archival/libarchive/lib.a(filter_accept_list_reassign.o)
 .debug_loc     0x00000000000404eb       0x9f archival/libarchive/lib.a(filter_accept_reject_list.o)
 .debug_loc     0x000000000004058a      0x11e archival/libarchive/lib.a(find_list_entry.o)
 .debug_loc     0x00000000000406a8      0x3c6 archival/libarchive/lib.a(get_header_cpio.o)
 .debug_loc     0x0000000000040a6e      0x66a archival/libarchive/lib.a(get_header_tar.o)
 .debug_loc     0x00000000000410d8       0x36 archival/libarchive/lib.a(get_header_tar_bz2.o)
 .debug_loc     0x000000000004110e       0x36 archival/libarchive/lib.a(get_header_tar_gz.o)
 .debug_loc     0x0000000000041144       0x36 archival/libarchive/lib.a(get_header_tar_lzma.o)
 .debug_loc     0x000000000004117a       0x36 archival/libarchive/lib.a(get_header_tar_xz.o)
 .debug_loc     0x00000000000411b0       0x23 archival/libarchive/lib.a(header_list.o)
 .debug_loc     0x00000000000411d3       0xd6 archival/libarchive/lib.a(header_verbose_list.o)
 .debug_loc     0x00000000000412a9       0x23 archival/libarchive/lib.a(init_handle.o)
 .debug_loc     0x00000000000412cc      0x83d archival/libarchive/lib.a(open_transformer.o)
 .debug_loc     0x0000000000041b09       0xb8 archival/libarchive/lib.a(seek_by_jump.o)
 .debug_loc     0x0000000000041bc1       0x49 archival/libarchive/lib.a(seek_by_read.o)
 .debug_loc     0x0000000000041c0a       0x49 archival/libarchive/lib.a(unpack_ar_archive.o)
 .debug_loc     0x0000000000041c53       0xee archival/libarchive/lib.a(unsafe_prefix.o)
 .debug_loc     0x0000000000041d41      0x1ef archival/libarchive/lib.a(unsafe_symlink_target.o)
 .debug_loc     0x0000000000041f30       0x59 archival/libarchive/lib.a(data_align.o)
 .debug_loc     0x0000000000041f89      0x19d archival/libarchive/lib.a(get_header_ar.o)
 .debug_loc     0x0000000000042126       0x46 console-tools/lib.a(clear.o)
 .debug_loc     0x000000000004216c      0x3f1 coreutils/lib.a(cat.o)
 .debug_loc     0x000000000004255d       0xa2 coreutils/lib.a(chgrp.o)
 .debug_loc     0x00000000000425ff      0x257 coreutils/lib.a(chmod.o)
 .debug_loc     0x0000000000042856      0x1ae coreutils/lib.a(chown.o)
 .debug_loc     0x0000000000042a04       0x6e coreutils/lib.a(chroot.o)
 .debug_loc     0x0000000000042a72      0x30c coreutils/lib.a(cksum.o)
 .debug_loc     0x0000000000042d7e      0x1d8 coreutils/lib.a(comm.o)
 .debug_loc     0x0000000000042f56      0x4a8 coreutils/lib.a(cp.o)
 .debug_loc     0x00000000000433fe      0xc37 coreutils/lib.a(cut.o)
 .debug_loc     0x0000000000044035      0x52f coreutils/lib.a(date.o)
 .debug_loc     0x0000000000044564     0x10fe coreutils/lib.a(dd.o)
 .debug_loc     0x0000000000045662      0x679 coreutils/lib.a(df.o)
 .debug_loc     0x0000000000045cdb       0x59 coreutils/lib.a(dirname.o)
 .debug_loc     0x0000000000045d34      0x3e7 coreutils/lib.a(dos2unix.o)
 .debug_loc     0x000000000004611b      0x250 coreutils/lib.a(du.o)
 .debug_loc     0x000000000004636b      0x34e coreutils/lib.a(echo.o)
 .debug_loc     0x00000000000466b9      0x147 coreutils/lib.a(env.o)
 .debug_loc     0x0000000000046800      0x26d coreutils/lib.a(expand.o)
 .debug_loc     0x0000000000046a6d      0xb7d coreutils/lib.a(expr.o)
 .debug_loc     0x00000000000475ea      0x429 coreutils/lib.a(factor.o)
 .debug_loc     0x0000000000047a13      0x4a3 coreutils/lib.a(fold.o)
 .debug_loc     0x0000000000047eb6      0x6d1 coreutils/lib.a(head.o)
 .debug_loc     0x0000000000048587       0x59 coreutils/lib.a(link.o)
 .debug_loc     0x00000000000485e0      0x467 coreutils/lib.a(ln.o)
 .debug_loc     0x0000000000048a47     0x125f coreutils/lib.a(ls.o)
 .debug_loc     0x0000000000049ca6      0x5a9 coreutils/lib.a(md5_sha1_sum.o)
 .debug_loc     0x000000000004a24f      0x230 coreutils/lib.a(mkdir.o)
 .debug_loc     0x000000000004a47f      0x45c coreutils/lib.a(mv.o)
 .debug_loc     0x000000000004a8db       0xfd coreutils/lib.a(nl.o)
 .debug_loc     0x000000000004a9d8       0xb2 coreutils/lib.a(nohup.o)
 .debug_loc     0x000000000004aa8a      0x15b coreutils/lib.a(printenv.o)
 .debug_loc     0x000000000004abe5      0xd54 coreutils/lib.a(printf.o)
 .debug_loc     0x000000000004b939       0x69 coreutils/lib.a(pwd.o)
 .debug_loc     0x000000000004b9a2      0x10e coreutils/lib.a(readlink.o)
 .debug_loc     0x000000000004bab0      0x106 coreutils/lib.a(realpath.o)
 .debug_loc     0x000000000004bbb6      0x1f1 coreutils/lib.a(rm.o)
 .debug_loc     0x000000000004bda7      0x14d coreutils/lib.a(rmdir.o)
 .debug_loc     0x000000000004bef4      0x42e coreutils/lib.a(seq.o)
 .debug_loc     0x000000000004c322      0x370 coreutils/lib.a(shred.o)
 .debug_loc     0x000000000004c692      0x5c3 coreutils/lib.a(shuf.o)
 .debug_loc     0x000000000004cc55       0xf1 coreutils/lib.a(sleep.o)
 .debug_loc     0x000000000004cd46     0x148e coreutils/lib.a(sort.o)
 .debug_loc     0x000000000004e1d4      0x51e coreutils/lib.a(split.o)
 .debug_loc     0x000000000004e6f2      0x3c0 coreutils/lib.a(sum.o)
 .debug_loc     0x000000000004eab2      0xfca coreutils/lib.a(tail.o)
 .debug_loc     0x000000000004fa7c      0xa86 coreutils/lib.a(test.o)
 .debug_loc     0x0000000000050502      0x281 coreutils/lib.a(touch.o)
 .debug_loc     0x0000000000050783      0xcd0 coreutils/lib.a(tr.o)
 .debug_loc     0x0000000000051453      0x52f coreutils/lib.a(tsort.o)
 .debug_loc     0x0000000000051982       0xb4 coreutils/lib.a(tty.o)
 .debug_loc     0x0000000000051a36      0x1ee coreutils/lib.a(uname.o)
 .debug_loc     0x0000000000051c24      0x4f7 coreutils/lib.a(uniq.o)
 .debug_loc     0x000000000005211b       0x59 coreutils/lib.a(unlink.o)
 .debug_loc     0x0000000000052174       0x59 coreutils/lib.a(usleep.o)
 .debug_loc     0x00000000000521cd      0x276 coreutils/lib.a(uudecode.o)
 .debug_loc     0x0000000000052443      0x57d coreutils/lib.a(wc.o)
 .debug_loc     0x00000000000529c0       0x6c coreutils/lib.a(whoami.o)
 .debug_loc     0x0000000000052a2c       0xd5 coreutils/libcoreutils/lib.a(cp_mv_stat.o)
 .debug_loc     0x0000000000052b01       0xd5 debianutils/lib.a(pipe_progress.o)
 .debug_loc     0x0000000000052bd6      0x341 debianutils/lib.a(run_parts.o)
 .debug_loc     0x0000000000052f17      0x1e7 debianutils/lib.a(which.o)
 .debug_loc     0x00000000000530fe     0x6a67 editors/lib.a(awk.o)
 .debug_loc     0x0000000000059b65      0x621 editors/lib.a(cmp.o)
 .debug_loc     0x000000000005a186     0x1f78 editors/lib.a(diff.o)
 .debug_loc     0x000000000005c0fe     0x2073 editors/lib.a(ed.o)
 .debug_loc     0x000000000005e171     0x11fc editors/lib.a(patch.o)
 .debug_loc     0x000000000005f36d     0x2bdd editors/lib.a(sed.o)
 .debug_loc     0x0000000000061f4a     0x6d4f editors/lib.a(vi.o)
 .debug_loc     0x0000000000068c99     0x1ca7 findutils/lib.a(find.o)
 .debug_loc     0x000000000006a940      0xffc findutils/lib.a(grep.o)
 .debug_loc     0x000000000006b93c      0xc7a findutils/lib.a(xargs.o)
 .debug_loc     0x000000000006c5b6       0xc9 libbb/lib.a(ask_confirmation.o)
 .debug_loc     0x000000000006c67f       0xdc libbb/lib.a(bb_cat.o)
 .debug_loc     0x000000000006c75b       0xee libbb/lib.a(bb_getgroups.o)
 .debug_loc     0x000000000006c849      0x550 libbb/lib.a(bb_pwd.o)
 .debug_loc     0x000000000006cd99       0x8c libbb/lib.a(bb_qsort.o)
 .debug_loc     0x000000000006ce25       0x46 libbb/lib.a(chomp.o)
 .debug_loc     0x000000000006ce6b       0xb2 libbb/lib.a(const_hack.o)
 .debug_loc     0x000000000006cf1d      0xa44 libbb/lib.a(copy_file.o)
 .debug_loc     0x000000000006d961      0x276 libbb/lib.a(crc32.o)
 .debug_loc     0x000000000006dbd7      0x243 libbb/lib.a(duration.o)
 .debug_loc     0x000000000006de1a       0x8f libbb/lib.a(endofname.o)
 .debug_loc     0x000000000006dea9      0x28e libbb/lib.a(executable.o)
 .debug_loc     0x000000000006e137       0x59 libbb/lib.a(fclose_nonstdin.o)
 .debug_loc     0x000000000006e190       0x36 libbb/lib.a(fflush_stdout_and_exit.o)
 .debug_loc     0x000000000006e1c6      0x30a libbb/lib.a(fgets_str.o)
 .debug_loc     0x000000000006e4d0      0x1a7 libbb/lib.a(find_mount_point.o)
 .debug_loc     0x000000000006e677      0x20d libbb/lib.a(get_line_from_file.o)
 .debug_loc     0x000000000006e884       0x46 libbb/lib.a(get_shell_name.o)
 .debug_loc     0x000000000006e8ca     0x17a5 libbb/lib.a(hash_md5_sha.o)
 .debug_loc     0x000000000007006f      0x65d libbb/lib.a(human_readable.o)
 .debug_loc     0x00000000000706cc       0xc5 libbb/lib.a(inet_cksum.o)
 .debug_loc     0x0000000000070791       0xe8 libbb/lib.a(inode_hash.o)
 .debug_loc     0x0000000000070879       0xc6 libbb/lib.a(isdirectory.o)
 .debug_loc     0x000000000007093f       0x8f libbb/lib.a(isqrt.o)
 .debug_loc     0x00000000000709ce     0x3707 libbb/lib.a(lineedit.o)
 .debug_loc     0x00000000000740d5      0x334 libbb/lib.a(make_directory.o)
 .debug_loc     0x0000000000074409      0x160 libbb/lib.a(mode_string.o)
 .debug_loc     0x0000000000074569      0x2e7 libbb/lib.a(parse_mode.o)
 .debug_loc     0x0000000000074850      0x2d3 libbb/lib.a(percent_decode.o)
 .debug_loc     0x0000000000074b23       0xd5 libbb/lib.a(print_numbered_lines.o)
 .debug_loc     0x0000000000074bf8      0x113 libbb/lib.a(printable.o)
 .debug_loc     0x0000000000074d0b      0x144 libbb/lib.a(printable_string.o)
 .debug_loc     0x0000000000074e4f      0x2db libbb/lib.a(process_escape_sequence.o)
 .debug_loc     0x000000000007512a      0x746 libbb/lib.a(procps.o)
 .debug_loc     0x0000000000075870      0x33d libbb/lib.a(progress.o)
 .debug_loc     0x0000000000075bad      0x4d7 libbb/lib.a(read_key.o)
 .debug_loc     0x0000000000076084      0x6c8 libbb/lib.a(read_printf.o)
 .debug_loc     0x000000000007674c      0x2e3 libbb/lib.a(recursive_action.o)
 .debug_loc     0x0000000000076a2f      0x21b libbb/lib.a(remove_file.o)
 .debug_loc     0x0000000000076c4a      0x2c1 libbb/lib.a(replace.o)
 .debug_loc     0x0000000000076f0b       0x24 libbb/lib.a(safe_gethostname.o)
 .debug_loc     0x0000000000076f2f       0xd8 libbb/lib.a(safe_poll.o)
 .debug_loc     0x0000000000077007       0x49 libbb/lib.a(single_argv.o)
 .debug_loc     0x0000000000077050       0xc5 libbb/lib.a(skip_whitespace.o)
 .debug_loc     0x0000000000077115       0xd8 libbb/lib.a(str_tolower.o)
 .debug_loc     0x00000000000771ed       0xed libbb/lib.a(u_signal_names.o)
 .debug_loc     0x00000000000772da      0xe7c libbb/lib.a(unicode.o)
 .debug_loc     0x0000000000078156      0x56e libbb/lib.a(uuencode.o)
 .debug_loc     0x00000000000786c4      0x194 libbb/lib.a(wfopen.o)
 .debug_loc     0x0000000000078858       0xaf libbb/lib.a(wfopen_input.o)
 .debug_loc     0x0000000000078907      0xf94 libbb/lib.a(xconnect.o)
 .debug_loc     0x000000000007989b       0xc5 libbb/lib.a(xrealloc_vector.o)
 .debug_loc     0x0000000000079960      0x174 libbb/lib.a(xregcomp.o)
 .debug_loc     0x0000000000079ad4       0x36 libbb/lib.a(auto_string.o)
 .debug_loc     0x0000000000079b0a      0x2e8 libpwdgrp/lib.a(uidgid_get.o)
 .debug_loc     0x0000000000079df2       0x6c libres/lib.a(freeaddrinfo.o)
 .debug_loc     0x0000000000079e5e      0x4c5 libres/lib.a(getaddrinfo.o)
 .debug_loc     0x000000000007a323      0x28f libres/lib.a(gethostbyname2_r.o)
 .debug_loc     0x000000000007a5b2      0x298 libres/lib.a(dnscruft.o)
 .debug_loc     0x000000000007a84a      0x443 libres/lib.a(dnscruft2.o)
 .debug_loc     0x000000000007ac8d      0x319 libres/lib.a(res_query.o)
 .debug_loc     0x000000000007afa6      0x2bb libres/lib.a(res_mkquery.o)

.debug_abbrev   0x0000000000000000     0xf238
 .debug_abbrev  0x0000000000000000      0x27b libbb/lib.a(appletlib.o)
 .debug_abbrev  0x000000000000027b       0x83 libbb/lib.a(compare_string_array.o)
 .debug_abbrev  0x00000000000002fe       0x67 libbb/lib.a(concat_path_file.o)
 .debug_abbrev  0x0000000000000365       0x39 libbb/lib.a(default_error_retval.o)
 .debug_abbrev  0x000000000000039e       0x62 libbb/lib.a(get_last_path_component.o)
 .debug_abbrev  0x0000000000000400       0x62 libbb/lib.a(last_char_is.o)
 .debug_abbrev  0x0000000000000462       0x62 libbb/lib.a(messages.o)
 .debug_abbrev  0x00000000000004c4       0xc6 libbb/lib.a(perror_msg.o)
 .debug_abbrev  0x000000000000058a       0x3c libbb/lib.a(ptr_to_globals.o)
 .debug_abbrev  0x00000000000005c6      0x11d libbb/lib.a(verror_msg.o)
 .debug_abbrev  0x00000000000006e3      0x1db libbb/lib.a(vfork_daemon_rexec.o)
 .debug_abbrev  0x00000000000008be       0x4b libbb/lib.a(xfunc_die.o)
 .debug_abbrev  0x0000000000000909      0x16e libbb/lib.a(xfuncs.o)
 .debug_abbrev  0x0000000000000a77      0x1e6 libbb/lib.a(xfuncs_printf.o)
 .debug_abbrev  0x0000000000000c5d       0xd9 libbb/lib.a(xreadlink.o)
 .debug_abbrev  0x0000000000000d36      0x108 libbb/lib.a(copyfd.o)
 .debug_abbrev  0x0000000000000e3e       0x74 libbb/lib.a(full_write.o)
 .debug_abbrev  0x0000000000000eb2      0x196 libbb/lib.a(getopt32.o)
 .debug_abbrev  0x0000000000001048       0xcb libbb/lib.a(llist.o)
 .debug_abbrev  0x0000000000001113       0x74 libbb/lib.a(read.o)
 .debug_abbrev  0x0000000000001187       0x75 libbb/lib.a(safe_strncpy.o)
 .debug_abbrev  0x00000000000011fc       0x6d libbb/lib.a(safe_write.o)
 .debug_abbrev  0x0000000000001269      0x159 libbb/lib.a(signals.o)
 .debug_abbrev  0x00000000000013c2      0x146 libbb/lib.a(time.o)
 .debug_abbrev  0x0000000000001508      0x11a libbb/lib.a(xatonum.o)
 .debug_abbrev  0x0000000000001622       0x60 libbb/lib.a(xgetcwd.o)
 .debug_abbrev  0x0000000000001682       0xff libbb/lib.a(bb_strtonum.o)
 .debug_abbrev  0x0000000000001781       0x71 miscutils/lib.a(readahead.o)
 .debug_abbrev  0x00000000000017f2      0x13f networking/lib.a(nslookup.o)
 .debug_abbrev  0x0000000000001931      0x234 networking/lib.a(ping.o)
 .debug_abbrev  0x0000000000001b65      0x272 networking/lib.a(wget.o)
 .debug_abbrev  0x0000000000001dd7       0x5b networking/lib.a(parse_pasv_epsv.o)
 .debug_abbrev  0x0000000000001e32      0x2c6 networking/lib.a(tls.o)
 .debug_abbrev  0x00000000000020f8      0x1f6 networking/lib.a(tls_aes.o)
 .debug_abbrev  0x00000000000022ee      0x107 networking/lib.a(tls_aesgcm.o)
 .debug_abbrev  0x00000000000023f5      0x1b0 networking/lib.a(tls_fe.o)
 .debug_abbrev  0x00000000000025a5      0x22f networking/lib.a(tls_pstm.o)
 .debug_abbrev  0x00000000000027d4       0x98 networking/lib.a(tls_pstm_montgomery_reduce.o)
 .debug_abbrev  0x000000000000286c       0xe6 networking/lib.a(tls_pstm_mul_comba.o)
 .debug_abbrev  0x0000000000002952       0xe0 networking/lib.a(tls_pstm_sqr_comba.o)
 .debug_abbrev  0x0000000000002a32       0xe7 networking/lib.a(tls_rsa.o)
 .debug_abbrev  0x0000000000002b19      0x21c networking/lib.a(tls_sp_c32.o)
 .debug_abbrev  0x0000000000002d35       0xb7 procps/lib.a(kill.o)
 .debug_abbrev  0x0000000000002dec      0x10d procps/lib.a(lsof.o)
 .debug_abbrev  0x0000000000002ef9      0x3aa shell/lib.a(ash.o)
 .debug_abbrev  0x00000000000032a3       0x31 shell/lib.a(ash_ptr_hack.o)
 .debug_abbrev  0x00000000000032d4       0xec shell/lib.a(cttyhack.o)
 .debug_abbrev  0x00000000000033c0      0x1d8 shell/lib.a(math.o)
 .debug_abbrev  0x0000000000003598       0xa7 shell/lib.a(random.o)
 .debug_abbrev  0x000000000000363f      0x1eb shell/lib.a(shell_common.o)
 .debug_abbrev  0x000000000000382a      0x12e dowork/lib.a(dowork.o)
 .debug_abbrev  0x0000000000003958      0x19e archival/lib.a(ar.o)
 .debug_abbrev  0x0000000000003af6      0x18c archival/lib.a(bbunzip.o)
 .debug_abbrev  0x0000000000003c82      0x319 archival/lib.a(bzip2.o)
 .debug_abbrev  0x0000000000003f9b      0x17d archival/lib.a(cpio.o)
 .debug_abbrev  0x0000000000004118      0x2b1 archival/lib.a(dpkg.o)
 .debug_abbrev  0x00000000000043c9       0xd4 archival/lib.a(dpkg_deb.o)
 .debug_abbrev  0x000000000000449d      0x23e archival/lib.a(gzip.o)
 .debug_abbrev  0x00000000000046db      0x239 archival/lib.a(rpm.o)
 .debug_abbrev  0x0000000000004914      0x280 archival/lib.a(tar.o)
 .debug_abbrev  0x0000000000004b94      0x212 archival/lib.a(unzip.o)
 .debug_abbrev  0x0000000000004da6       0xa6 archival/lib.a(chksum_and_xwrite_tar_header.o)
 .debug_abbrev  0x0000000000004e4c       0x51 archival/libarchive/lib.a(common.o)
 .debug_abbrev  0x0000000000004e9d      0x12f archival/libarchive/lib.a(data_extract_all.o)
 .debug_abbrev  0x0000000000004fcc      0x14d archival/libarchive/lib.a(data_extract_to_command.o)
 .debug_abbrev  0x0000000000005119       0xc3 archival/libarchive/lib.a(data_extract_to_stdout.o)
 .debug_abbrev  0x00000000000051dc       0xc3 archival/libarchive/lib.a(data_skip.o)
 .debug_abbrev  0x000000000000529f      0x227 archival/libarchive/lib.a(decompress_bunzip2.o)
 .debug_abbrev  0x00000000000054c6      0x280 archival/libarchive/lib.a(decompress_gunzip.o)
 .debug_abbrev  0x0000000000005746      0x123 archival/libarchive/lib.a(decompress_uncompress.o)
 .debug_abbrev  0x0000000000005869      0x1d5 archival/libarchive/lib.a(decompress_unlzma.o)
 .debug_abbrev  0x0000000000005a3e      0x2fe archival/libarchive/lib.a(decompress_unxz.o)
 .debug_abbrev  0x0000000000005d3c       0xc5 archival/libarchive/lib.a(filter_accept_list.o)
 .debug_abbrev  0x0000000000005e01       0xdd archival/libarchive/lib.a(filter_accept_list_reassign.o)
 .debug_abbrev  0x0000000000005ede       0xd4 archival/libarchive/lib.a(filter_accept_reject_list.o)
 .debug_abbrev  0x0000000000005fb2       0xc2 archival/libarchive/lib.a(find_list_entry.o)
 .debug_abbrev  0x0000000000006074      0x11d archival/libarchive/lib.a(get_header_cpio.o)
 .debug_abbrev  0x0000000000006191      0x1d1 archival/libarchive/lib.a(get_header_tar.o)
 .debug_abbrev  0x0000000000006362       0xc5 archival/libarchive/lib.a(get_header_tar_bz2.o)
 .debug_abbrev  0x0000000000006427       0xc5 archival/libarchive/lib.a(get_header_tar_gz.o)
 .debug_abbrev  0x00000000000064ec       0xc5 archival/libarchive/lib.a(get_header_tar_lzma.o)
 .debug_abbrev  0x00000000000065b1       0xc5 archival/libarchive/lib.a(get_header_tar_xz.o)
 .debug_abbrev  0x0000000000006676       0x7a archival/libarchive/lib.a(header_list.o)
 .debug_abbrev  0x00000000000066f0       0xb8 archival/libarchive/lib.a(header_verbose_list.o)
 .debug_abbrev  0x00000000000067a8       0xc5 archival/libarchive/lib.a(init_handle.o)
 .debug_abbrev  0x000000000000686d      0x22d archival/libarchive/lib.a(open_transformer.o)
 .debug_abbrev  0x0000000000006a9a       0x50 archival/libarchive/lib.a(seek_by_jump.o)
 .debug_abbrev  0x0000000000006aea       0x5f archival/libarchive/lib.a(seek_by_read.o)
 .debug_abbrev  0x0000000000006b49       0xed archival/libarchive/lib.a(unpack_ar_archive.o)
 .debug_abbrev  0x0000000000006c36       0x85 archival/libarchive/lib.a(unsafe_prefix.o)
 .debug_abbrev  0x0000000000006cbb       0x90 archival/libarchive/lib.a(unsafe_symlink_target.o)
 .debug_abbrev  0x0000000000006d4b       0xd0 archival/libarchive/lib.a(data_align.o)
 .debug_abbrev  0x0000000000006e1b       0xc5 archival/libarchive/lib.a(filter_accept_all.o)
 .debug_abbrev  0x0000000000006ee0      0x12c archival/libarchive/lib.a(get_header_ar.o)
 .debug_abbrev  0x000000000000700c       0x7a archival/libarchive/lib.a(header_skip.o)
 .debug_abbrev  0x0000000000007086       0x4c console-tools/lib.a(clear.o)
 .debug_abbrev  0x00000000000070d2       0xfd coreutils/lib.a(cat.o)
 .debug_abbrev  0x00000000000071cf       0x5b coreutils/lib.a(chgrp.o)
 .debug_abbrev  0x000000000000722a       0xf9 coreutils/lib.a(chmod.o)
 .debug_abbrev  0x0000000000007323      0x121 coreutils/lib.a(chown.o)
 .debug_abbrev  0x0000000000007444       0x4c coreutils/lib.a(chroot.o)
 .debug_abbrev  0x0000000000007490       0x99 coreutils/lib.a(cksum.o)
 .debug_abbrev  0x0000000000007529       0xb7 coreutils/lib.a(comm.o)
 .debug_abbrev  0x00000000000075e0       0xfc coreutils/lib.a(cp.o)
 .debug_abbrev  0x00000000000076dc      0x178 coreutils/lib.a(cut.o)
 .debug_abbrev  0x0000000000007854      0x10e coreutils/lib.a(date.o)
 .debug_abbrev  0x0000000000007962      0x1ea coreutils/lib.a(dd.o)
 .debug_abbrev  0x0000000000007b4c      0x167 coreutils/lib.a(df.o)
 .debug_abbrev  0x0000000000007cb3       0x4c coreutils/lib.a(dirname.o)
 .debug_abbrev  0x0000000000007cff      0x117 coreutils/lib.a(dos2unix.o)
 .debug_abbrev  0x0000000000007e16      0x11e coreutils/lib.a(du.o)
 .debug_abbrev  0x0000000000007f34       0x9c coreutils/lib.a(echo.o)
 .debug_abbrev  0x0000000000007fd0       0x92 coreutils/lib.a(env.o)
 .debug_abbrev  0x0000000000008062       0xeb coreutils/lib.a(expand.o)
 .debug_abbrev  0x000000000000814d      0x205 coreutils/lib.a(expr.o)
 .debug_abbrev  0x0000000000008352      0x110 coreutils/lib.a(factor.o)
 .debug_abbrev  0x0000000000008462       0xf7 coreutils/lib.a(fold.o)
 .debug_abbrev  0x0000000000008559      0x16e coreutils/lib.a(head.o)
 .debug_abbrev  0x00000000000086c7       0x4c coreutils/lib.a(link.o)
 .debug_abbrev  0x0000000000008713       0xbf coreutils/lib.a(ln.o)
 .debug_abbrev  0x00000000000087d2      0x204 coreutils/lib.a(ls.o)
 .debug_abbrev  0x00000000000089d6      0x186 coreutils/lib.a(md5_sha1_sum.o)
 .debug_abbrev  0x0000000000008b5c       0x85 coreutils/lib.a(mkdir.o)
 .debug_abbrev  0x0000000000008be1       0xf2 coreutils/lib.a(mv.o)
 .debug_abbrev  0x0000000000008cd3       0xb8 coreutils/lib.a(nl.o)
 .debug_abbrev  0x0000000000008d8b       0x7d coreutils/lib.a(nohup.o)
 .debug_abbrev  0x0000000000008e08       0x70 coreutils/lib.a(printenv.o)
 .debug_abbrev  0x0000000000008e78      0x1c4 coreutils/lib.a(printf.o)
 .debug_abbrev  0x000000000000903c       0x5b coreutils/lib.a(pwd.o)
 .debug_abbrev  0x0000000000009097       0x71 coreutils/lib.a(readlink.o)
 .debug_abbrev  0x0000000000009108       0x67 coreutils/lib.a(realpath.o)
 .debug_abbrev  0x000000000000916f       0x84 coreutils/lib.a(rm.o)
 .debug_abbrev  0x00000000000091f3       0x5b coreutils/lib.a(rmdir.o)
 .debug_abbrev  0x000000000000924e       0x7f coreutils/lib.a(seq.o)
 .debug_abbrev  0x00000000000092cd       0xf9 coreutils/lib.a(shred.o)
 .debug_abbrev  0x00000000000093c6       0xd7 coreutils/lib.a(shuf.o)
 .debug_abbrev  0x000000000000949d       0x68 coreutils/lib.a(sleep.o)
 .debug_abbrev  0x0000000000009505      0x1e9 coreutils/lib.a(sort.o)
 .debug_abbrev  0x00000000000096ee      0x123 coreutils/lib.a(split.o)
 .debug_abbrev  0x0000000000009811       0xa1 coreutils/lib.a(sum.o)
 .debug_abbrev  0x00000000000098b2       0xfa coreutils/lib.a(tail.o)
 .debug_abbrev  0x00000000000099ac      0x207 coreutils/lib.a(test.o)
 .debug_abbrev  0x0000000000009bb3       0x31 coreutils/lib.a(test_ptr_hack.o)
 .debug_abbrev  0x0000000000009be4       0xfa coreutils/lib.a(touch.o)
 .debug_abbrev  0x0000000000009cde      0x1c4 coreutils/lib.a(tr.o)
 .debug_abbrev  0x0000000000009ea2      0x116 coreutils/lib.a(tsort.o)
 .debug_abbrev  0x0000000000009fb8       0x67 coreutils/lib.a(tty.o)
 .debug_abbrev  0x000000000000a01f       0xf7 coreutils/lib.a(uname.o)
 .debug_abbrev  0x000000000000a116       0x91 coreutils/lib.a(uniq.o)
 .debug_abbrev  0x000000000000a1a7       0x4c coreutils/lib.a(unlink.o)
 .debug_abbrev  0x000000000000a1f3       0x4c coreutils/lib.a(usleep.o)
 .debug_abbrev  0x000000000000a23f       0xd0 coreutils/lib.a(uudecode.o)
 .debug_abbrev  0x000000000000a30f       0xe9 coreutils/lib.a(wc.o)
 .debug_abbrev  0x000000000000a3f8       0x4c coreutils/lib.a(whoami.o)
 .debug_abbrev  0x000000000000a444       0xa7 coreutils/libcoreutils/lib.a(cp_mv_stat.o)
 .debug_abbrev  0x000000000000a4eb       0x99 debianutils/lib.a(pipe_progress.o)
 .debug_abbrev  0x000000000000a584      0x1a6 debianutils/lib.a(run_parts.o)
 .debug_abbrev  0x000000000000a72a       0x91 debianutils/lib.a(which.o)
 .debug_abbrev  0x000000000000a7bb      0x2b8 editors/lib.a(awk.o)
 .debug_abbrev  0x000000000000aa73       0xbb editors/lib.a(cmp.o)
 .debug_abbrev  0x000000000000ab2e      0x290 editors/lib.a(diff.o)
 .debug_abbrev  0x000000000000adbe      0x1f7 editors/lib.a(ed.o)
 .debug_abbrev  0x000000000000afb5      0x1ec editors/lib.a(patch.o)
 .debug_abbrev  0x000000000000b1a1      0x27f editors/lib.a(sed.o)
 .debug_abbrev  0x000000000000b420      0x271 editors/lib.a(vi.o)
 .debug_abbrev  0x000000000000b691      0x212 findutils/lib.a(find.o)
 .debug_abbrev  0x000000000000b8a3      0x1fa findutils/lib.a(grep.o)
 .debug_abbrev  0x000000000000ba9d      0x173 findutils/lib.a(xargs.o)
 .debug_abbrev  0x000000000000bc10       0x88 libbb/lib.a(ask_confirmation.o)
 .debug_abbrev  0x000000000000bc98       0x71 libbb/lib.a(bb_cat.o)
 .debug_abbrev  0x000000000000bd09       0x68 libbb/lib.a(bb_getgroups.o)
 .debug_abbrev  0x000000000000bd71       0xe3 libbb/lib.a(bb_pwd.o)
 .debug_abbrev  0x000000000000be54       0x66 libbb/lib.a(bb_qsort.o)
 .debug_abbrev  0x000000000000beba       0x59 libbb/lib.a(chomp.o)
 .debug_abbrev  0x000000000000bf13       0x4a libbb/lib.a(common_bufsiz.o)
 .debug_abbrev  0x000000000000bf5d       0x53 libbb/lib.a(concat_subpath_file.o)
 .debug_abbrev  0x000000000000bfb0       0xad libbb/lib.a(const_hack.o)
 .debug_abbrev  0x000000000000c05d      0x167 libbb/lib.a(copy_file.o)
 .debug_abbrev  0x000000000000c1c4       0xb1 libbb/lib.a(crc32.o)
 .debug_abbrev  0x000000000000c275      0x140 libbb/lib.a(duration.o)
 .debug_abbrev  0x000000000000c3b5       0x9f libbb/lib.a(endofname.o)
 .debug_abbrev  0x000000000000c454       0xca libbb/lib.a(executable.o)
 .debug_abbrev  0x000000000000c51e       0x71 libbb/lib.a(fclose_nonstdin.o)
 .debug_abbrev  0x000000000000c58f       0x5e libbb/lib.a(fflush_stdout_and_exit.o)
 .debug_abbrev  0x000000000000c5ed       0x9a libbb/lib.a(fgets_str.o)
 .debug_abbrev  0x000000000000c687       0xb4 libbb/lib.a(find_mount_point.o)
 .debug_abbrev  0x000000000000c73b       0x80 libbb/lib.a(get_line_from_file.o)
 .debug_abbrev  0x000000000000c7bb       0x7c libbb/lib.a(get_shell_name.o)
 .debug_abbrev  0x000000000000c837      0x22c libbb/lib.a(hash_md5_sha.o)
 .debug_abbrev  0x000000000000ca63       0x28 libbb/lib.a(hash_md5_sha256_x86-64_shaNI.o)
 .debug_abbrev  0x000000000000ca8b       0x28 libbb/lib.a(hash_md5_sha_x86-64_shaNI.o)
 .debug_abbrev  0x000000000000cab3       0x8f libbb/lib.a(human_readable.o)
 .debug_abbrev  0x000000000000cb42       0x74 libbb/lib.a(inet_cksum.o)
 .debug_abbrev  0x000000000000cbb6       0xde libbb/lib.a(inode_hash.o)
 .debug_abbrev  0x000000000000cc94       0xa6 libbb/lib.a(isdirectory.o)
 .debug_abbrev  0x000000000000cd3a       0x54 libbb/lib.a(isqrt.o)
 .debug_abbrev  0x000000000000cd8e      0x30e libbb/lib.a(lineedit.o)
 .debug_abbrev  0x000000000000d09c       0x31 libbb/lib.a(lineedit_ptr_hack.o)
 .debug_abbrev  0x000000000000d0cd       0xea libbb/lib.a(make_directory.o)
 .debug_abbrev  0x000000000000d1b7       0xab libbb/lib.a(mode_string.o)
 .debug_abbrev  0x000000000000d262       0xd1 libbb/lib.a(parse_mode.o)
 .debug_abbrev  0x000000000000d333       0x84 libbb/lib.a(percent_decode.o)
 .debug_abbrev  0x000000000000d3b7       0x29 libbb/lib.a(perror_nomsg_and_die.o)
 .debug_abbrev  0x000000000000d3e0       0xa6 libbb/lib.a(print_numbered_lines.o)
 .debug_abbrev  0x000000000000d486       0x92 libbb/lib.a(printable.o)
 .debug_abbrev  0x000000000000d518       0x92 libbb/lib.a(printable_string.o)
 .debug_abbrev  0x000000000000d5aa       0xae libbb/lib.a(process_escape_sequence.o)
 .debug_abbrev  0x000000000000d658      0x206 libbb/lib.a(procps.o)
 .debug_abbrev  0x000000000000d85e      0x10a libbb/lib.a(progress.o)
 .debug_abbrev  0x000000000000d968      0x146 libbb/lib.a(read_key.o)
 .debug_abbrev  0x000000000000daae       0xe3 libbb/lib.a(read_printf.o)
 .debug_abbrev  0x000000000000db91      0x153 libbb/lib.a(recursive_action.o)
 .debug_abbrev  0x000000000000dce4       0xf0 libbb/lib.a(remove_file.o)
 .debug_abbrev  0x000000000000ddd4       0x74 libbb/lib.a(replace.o)
 .debug_abbrev  0x000000000000de48       0x92 libbb/lib.a(safe_gethostname.o)
 .debug_abbrev  0x000000000000deda       0x8d libbb/lib.a(safe_poll.o)
 .debug_abbrev  0x000000000000df67       0x4c libbb/lib.a(single_argv.o)
 .debug_abbrev  0x000000000000dfb3       0x62 libbb/lib.a(skip_whitespace.o)
 .debug_abbrev  0x000000000000e015       0xa7 libbb/lib.a(str_tolower.o)
 .debug_abbrev  0x000000000000e0bc       0x36 libbb/lib.a(sysconf.o)
 .debug_abbrev  0x000000000000e0f2       0xba libbb/lib.a(u_signal_names.o)
 .debug_abbrev  0x000000000000e1ac      0x239 libbb/lib.a(unicode.o)
 .debug_abbrev  0x000000000000e3e5      0x112 libbb/lib.a(uuencode.o)
 .debug_abbrev  0x000000000000e4f7       0x8d libbb/lib.a(wfopen.o)
 .debug_abbrev  0x000000000000e584       0x96 libbb/lib.a(wfopen_input.o)
 .debug_abbrev  0x000000000000e61a      0x258 libbb/lib.a(xconnect.o)
 .debug_abbrev  0x000000000000e872       0x6d libbb/lib.a(xrealloc_vector.o)
 .debug_abbrev  0x000000000000e8df       0xbd libbb/lib.a(xregcomp.o)
 .debug_abbrev  0x000000000000e99c       0x83 libbb/lib.a(auto_string.o)
 .debug_abbrev  0x000000000000ea1f       0xdf libpwdgrp/lib.a(uidgid_get.o)
 .debug_abbrev  0x000000000000eafe       0xbc libres/lib.a(dnscruft3.o)
 .debug_abbrev  0x000000000000ebba       0xa6 libres/lib.a(freeaddrinfo.o)
 .debug_abbrev  0x000000000000ec60      0x100 libres/lib.a(getaddrinfo.o)
 .debug_abbrev  0x000000000000ed60       0x8b libres/lib.a(gethostbyname2_r.o)
 .debug_abbrev  0x000000000000edeb       0x36 libres/lib.a(res_init.o)
 .debug_abbrev  0x000000000000ee21      0x166 libres/lib.a(dnscruft.o)
 .debug_abbrev  0x000000000000ef87       0xee libres/lib.a(dnscruft2.o)
 .debug_abbrev  0x000000000000f075       0xea libres/lib.a(res_query.o)
 .debug_abbrev  0x000000000000f15f       0x2c libres/lib.a(h_errno.o)
 .debug_abbrev  0x000000000000f18b       0xad libres/lib.a(res_mkquery.o)

.debug_info     0x0000000000000000    0x53acf
 .debug_info    0x0000000000000000      0x6b6 libbb/lib.a(appletlib.o)
 .debug_info    0x00000000000006b6      0x25b libbb/lib.a(compare_string_array.o)
 .debug_info    0x0000000000000911       0x89 libbb/lib.a(concat_path_file.o)
 .debug_info    0x000000000000099a       0x51 libbb/lib.a(default_error_retval.o)
 .debug_info    0x00000000000009eb       0xe9 libbb/lib.a(get_last_path_component.o)
 .debug_info    0x0000000000000ad4       0x7e libbb/lib.a(last_char_is.o)
 .debug_info    0x0000000000000b52      0x22d libbb/lib.a(messages.o)
 .debug_info    0x0000000000000d7f      0x158 libbb/lib.a(perror_msg.o)
 .debug_info    0x0000000000000ed7       0x5f libbb/lib.a(ptr_to_globals.o)
 .debug_info    0x0000000000000f36      0x2a5 libbb/lib.a(verror_msg.o)
 .debug_info    0x00000000000011db      0x463 libbb/lib.a(vfork_daemon_rexec.o)
 .debug_info    0x000000000000163e       0x5b libbb/lib.a(xfunc_die.o)
 .debug_info    0x0000000000001699      0x7fb libbb/lib.a(xfuncs.o)
 .debug_info    0x0000000000001e94     0x1421 libbb/lib.a(xfuncs_printf.o)
 .debug_info    0x00000000000032b5      0x2c2 libbb/lib.a(xreadlink.o)
 .debug_info    0x0000000000003577      0x250 libbb/lib.a(copyfd.o)
 .debug_info    0x00000000000037c7       0xe8 libbb/lib.a(full_write.o)
 .debug_info    0x00000000000038af      0x553 libbb/lib.a(getopt32.o)
 .debug_info    0x0000000000003e02      0x25b libbb/lib.a(llist.o)
 .debug_info    0x000000000000405d      0x1db libbb/lib.a(read.o)
 .debug_info    0x0000000000004238       0xce libbb/lib.a(safe_strncpy.o)
 .debug_info    0x0000000000004306       0xc8 libbb/lib.a(safe_write.o)
 .debug_info    0x00000000000043ce      0x6d2 libbb/lib.a(signals.o)
 .debug_info    0x0000000000004aa0      0x439 libbb/lib.a(time.o)
 .debug_info    0x0000000000004ed9      0xb93 libbb/lib.a(xatonum.o)
 .debug_info    0x0000000000005a6c       0x86 libbb/lib.a(xgetcwd.o)
 .debug_info    0x0000000000005af2      0x3c0 libbb/lib.a(bb_strtonum.o)
 .debug_info    0x0000000000005eb2       0xfb miscutils/lib.a(readahead.o)
 .debug_info    0x0000000000005fad      0x380 networking/lib.a(nslookup.o)
 .debug_info    0x000000000000632d      0xd3b networking/lib.a(ping.o)
 .debug_info    0x0000000000007068     0x1149 networking/lib.a(wget.o)
 .debug_info    0x00000000000081b1       0x85 networking/lib.a(parse_pasv_epsv.o)
 .debug_info    0x0000000000008236     0x1f34 networking/lib.a(tls.o)
 .debug_info    0x000000000000a16a      0x973 networking/lib.a(tls_aes.o)
 .debug_info    0x000000000000aadd      0x238 networking/lib.a(tls_aesgcm.o)
 .debug_info    0x000000000000ad15      0x705 networking/lib.a(tls_fe.o)
 .debug_info    0x000000000000b41a     0x1313 networking/lib.a(tls_pstm.o)
 .debug_info    0x000000000000c72d      0x240 networking/lib.a(tls_pstm_montgomery_reduce.o)
 .debug_info    0x000000000000c96d      0x33b networking/lib.a(tls_pstm_mul_comba.o)
 .debug_info    0x000000000000cca8      0x36f networking/lib.a(tls_pstm_sqr_comba.o)
 .debug_info    0x000000000000d017      0x397 networking/lib.a(tls_rsa.o)
 .debug_info    0x000000000000d3ae     0x10ef networking/lib.a(tls_sp_c32.o)
 .debug_info    0x000000000000e49d      0x1c8 procps/lib.a(kill.o)
 .debug_info    0x000000000000e665      0x3f2 procps/lib.a(lsof.o)
 .debug_info    0x000000000000ea57     0xa3cb shell/lib.a(ash.o)
 .debug_info    0x0000000000018e22       0x7c shell/lib.a(ash_ptr_hack.o)
 .debug_info    0x0000000000018e9e      0x290 shell/lib.a(cttyhack.o)
 .debug_info    0x000000000001912e      0x652 shell/lib.a(math.o)
 .debug_info    0x0000000000019780      0x123 shell/lib.a(random.o)
 .debug_info    0x00000000000198a3      0x72f shell/lib.a(shell_common.o)
 .debug_info    0x0000000000019fd2      0x4d3 dowork/lib.a(dowork.o)
 .debug_info    0x000000000001a4a5      0x7b9 archival/lib.a(ar.o)
 .debug_info    0x000000000001ac5e      0x83b archival/lib.a(bbunzip.o)
 .debug_info    0x000000000001b499     0x1fba archival/lib.a(bzip2.o)
 .debug_info    0x000000000001d453      0x957 archival/lib.a(cpio.o)
 .debug_info    0x000000000001ddaa     0x1fbf archival/lib.a(dpkg.o)
 .debug_info    0x000000000001fd69      0x48b archival/lib.a(dpkg_deb.o)
 .debug_info    0x00000000000201f4     0x12fc archival/lib.a(gzip.o)
 .debug_info    0x00000000000214f0      0xd98 archival/lib.a(rpm.o)
 .debug_info    0x0000000000022288     0x1201 archival/lib.a(tar.o)
 .debug_info    0x0000000000023489      0xd16 archival/lib.a(unzip.o)
 .debug_info    0x000000000002419f      0x1cb archival/lib.a(chksum_and_xwrite_tar_header.o)
 .debug_info    0x000000000002436a       0x54 archival/libarchive/lib.a(common.o)
 .debug_info    0x00000000000243be      0x804 archival/libarchive/lib.a(data_extract_all.o)
 .debug_info    0x0000000000024bc2      0x636 archival/libarchive/lib.a(data_extract_to_command.o)
 .debug_info    0x00000000000251f8      0x428 archival/libarchive/lib.a(data_extract_to_stdout.o)
 .debug_info    0x0000000000025620      0x428 archival/libarchive/lib.a(data_skip.o)
 .debug_info    0x0000000000025a48      0xc3a archival/libarchive/lib.a(decompress_bunzip2.o)
 .debug_info    0x0000000000026682     0x10af archival/libarchive/lib.a(decompress_gunzip.o)
 .debug_info    0x0000000000027731      0x482 archival/libarchive/lib.a(decompress_uncompress.o)
 .debug_info    0x0000000000027bb3      0xcd2 archival/libarchive/lib.a(decompress_unlzma.o)
 .debug_info    0x0000000000028885     0x1fcd archival/libarchive/lib.a(decompress_unxz.o)
 .debug_info    0x000000000002a852      0x42c archival/libarchive/lib.a(filter_accept_list.o)
 .debug_info    0x000000000002ac7e      0x449 archival/libarchive/lib.a(filter_accept_list_reassign.o)
 .debug_info    0x000000000002b0c7      0x463 archival/libarchive/lib.a(filter_accept_reject_list.o)
 .debug_info    0x000000000002b52a      0x142 archival/libarchive/lib.a(find_list_entry.o)
 .debug_info    0x000000000002b66c      0x5ef archival/libarchive/lib.a(get_header_cpio.o)
 .debug_info    0x000000000002bc5b      0x83e archival/libarchive/lib.a(get_header_tar.o)
 .debug_info    0x000000000002c499      0x42c archival/libarchive/lib.a(get_header_tar_bz2.o)
 .debug_info    0x000000000002c8c5      0x42c archival/libarchive/lib.a(get_header_tar_gz.o)
 .debug_info    0x000000000002ccf1      0x42c archival/libarchive/lib.a(get_header_tar_lzma.o)
 .debug_info    0x000000000002d11d      0x42c archival/libarchive/lib.a(get_header_tar_xz.o)
 .debug_info    0x000000000002d549      0x1d8 archival/libarchive/lib.a(header_list.o)
 .debug_info    0x000000000002d721      0x2f4 archival/libarchive/lib.a(header_verbose_list.o)
 .debug_info    0x000000000002da15      0x42c archival/libarchive/lib.a(init_handle.o)
 .debug_info    0x000000000002de41      0x72b archival/libarchive/lib.a(open_transformer.o)
 .debug_info    0x000000000002e56c       0x8e archival/libarchive/lib.a(seek_by_jump.o)
 .debug_info    0x000000000002e5fa       0x8c archival/libarchive/lib.a(seek_by_read.o)
 .debug_info    0x000000000002e686      0x449 archival/libarchive/lib.a(unpack_ar_archive.o)
 .debug_info    0x000000000002eacf       0xc4 archival/libarchive/lib.a(unsafe_prefix.o)
 .debug_info    0x000000000002eb93      0x113 archival/libarchive/lib.a(unsafe_symlink_target.o)
 .debug_info    0x000000000002eca6      0x442 archival/libarchive/lib.a(data_align.o)
 .debug_info    0x000000000002f0e8      0x42a archival/libarchive/lib.a(filter_accept_all.o)
 .debug_info    0x000000000002f512      0x5ae archival/libarchive/lib.a(get_header_ar.o)
 .debug_info    0x000000000002fac0      0x1d6 archival/libarchive/lib.a(header_skip.o)
 .debug_info    0x000000000002fc96       0x7b console-tools/lib.a(clear.o)
 .debug_info    0x000000000002fd11      0x24d coreutils/lib.a(cat.o)
 .debug_info    0x000000000002ff5e       0x8a coreutils/lib.a(chgrp.o)
 .debug_info    0x000000000002ffe8      0x383 coreutils/lib.a(chmod.o)
 .debug_info    0x000000000003036b      0x43e coreutils/lib.a(chown.o)
 .debug_info    0x00000000000307a9       0x7b coreutils/lib.a(chroot.o)
 .debug_info    0x0000000000030824      0x199 coreutils/lib.a(cksum.o)
 .debug_info    0x00000000000309bd      0x149 coreutils/lib.a(comm.o)
 .debug_info    0x0000000000030b06      0x3e4 coreutils/lib.a(cp.o)
 .debug_info    0x0000000000030eea      0x485 coreutils/lib.a(cut.o)
 .debug_info    0x000000000003136f      0x4d9 coreutils/lib.a(date.o)
 .debug_info    0x0000000000031848      0xadb coreutils/lib.a(dd.o)
 .debug_info    0x0000000000032323      0x47b coreutils/lib.a(df.o)
 .debug_info    0x000000000003279e       0x7b coreutils/lib.a(dirname.o)
 .debug_info    0x0000000000032819      0x382 coreutils/lib.a(dos2unix.o)
 .debug_info    0x0000000000032b9b      0x498 coreutils/lib.a(du.o)
 .debug_info    0x0000000000033033      0x178 coreutils/lib.a(echo.o)
 .debug_info    0x00000000000331ab      0x115 coreutils/lib.a(env.o)
 .debug_info    0x00000000000332c0      0x1e1 coreutils/lib.a(expand.o)
 .debug_info    0x00000000000334a1      0x794 coreutils/lib.a(expr.o)
 .debug_info    0x0000000000033c35      0x30a coreutils/lib.a(factor.o)
 .debug_info    0x0000000000033f3f      0x21b coreutils/lib.a(fold.o)
 .debug_info    0x000000000003415a      0x421 coreutils/lib.a(head.o)
 .debug_info    0x000000000003457b       0x7b coreutils/lib.a(link.o)
 .debug_info    0x00000000000345f6      0x31c coreutils/lib.a(ln.o)
 .debug_info    0x0000000000034912      0xf80 coreutils/lib.a(ls.o)
 .debug_info    0x0000000000035892      0x48d coreutils/lib.a(md5_sha1_sum.o)
 .debug_info    0x0000000000035d1f      0x19d coreutils/lib.a(mkdir.o)
 .debug_info    0x0000000000035ebc      0x3cb coreutils/lib.a(mv.o)
 .debug_info    0x0000000000036287      0x15a coreutils/lib.a(nl.o)
 .debug_info    0x00000000000363e1       0xc5 coreutils/lib.a(nohup.o)
 .debug_info    0x00000000000364a6       0xcc coreutils/lib.a(printenv.o)
 .debug_info    0x0000000000036572      0x54f coreutils/lib.a(printf.o)
 .debug_info    0x0000000000036ac1       0x8a coreutils/lib.a(pwd.o)
 .debug_info    0x0000000000036b4b       0xd1 coreutils/lib.a(readlink.o)
 .debug_info    0x0000000000036c1c       0xa0 coreutils/lib.a(realpath.o)
 .debug_info    0x0000000000036cbc      0x162 coreutils/lib.a(rm.o)
 .debug_info    0x0000000000036e1e       0xa8 coreutils/lib.a(rmdir.o)
 .debug_info    0x0000000000036ec6      0x171 coreutils/lib.a(seq.o)
 .debug_info    0x0000000000037037      0x3a4 coreutils/lib.a(shred.o)
 .debug_info    0x00000000000373db      0x253 coreutils/lib.a(shuf.o)
 .debug_info    0x000000000003762e       0x9d coreutils/lib.a(sleep.o)
 .debug_info    0x00000000000376cb      0x8b2 coreutils/lib.a(sort.o)
 .debug_info    0x0000000000037f7d      0x33a coreutils/lib.a(split.o)
 .debug_info    0x00000000000382b7      0x19f coreutils/lib.a(sum.o)
 .debug_info    0x0000000000038456      0x60c coreutils/lib.a(tail.o)
 .debug_info    0x0000000000038a62      0x8e8 coreutils/lib.a(test.o)
 .debug_info    0x000000000003934a       0x3e coreutils/lib.a(test_ptr_hack.o)
 .debug_info    0x0000000000039388      0x44f coreutils/lib.a(touch.o)
 .debug_info    0x00000000000397d7      0x4f6 coreutils/lib.a(tr.o)
 .debug_info    0x0000000000039ccd      0x2e0 coreutils/lib.a(tsort.o)
 .debug_info    0x0000000000039fad       0xa4 coreutils/lib.a(tty.o)
 .debug_info    0x000000000003a051      0x209 coreutils/lib.a(uname.o)
 .debug_info    0x000000000003a25a      0x199 coreutils/lib.a(uniq.o)
 .debug_info    0x000000000003a3f3       0x7b coreutils/lib.a(unlink.o)
 .debug_info    0x000000000003a46e       0x7b coreutils/lib.a(usleep.o)
 .debug_info    0x000000000003a4e9      0x1da coreutils/lib.a(uudecode.o)
 .debug_info    0x000000000003a6c3      0x21f coreutils/lib.a(wc.o)
 .debug_info    0x000000000003a8e2       0x7b coreutils/lib.a(whoami.o)
 .debug_info    0x000000000003a95d      0x2d4 coreutils/libcoreutils/lib.a(cp_mv_stat.o)
 .debug_info    0x000000000003ac31      0x103 debianutils/lib.a(pipe_progress.o)
 .debug_info    0x000000000003ad34      0x562 debianutils/lib.a(run_parts.o)
 .debug_info    0x000000000003b296       0xf4 debianutils/lib.a(which.o)
 .debug_info    0x000000000003b38a     0x2e4e editors/lib.a(awk.o)
 .debug_info    0x000000000003e1d8      0x25b editors/lib.a(cmp.o)
 .debug_info    0x000000000003e433     0x1386 editors/lib.a(diff.o)
 .debug_info    0x000000000003f7b9      0x9ac editors/lib.a(ed.o)
 .debug_info    0x0000000000040165      0x744 editors/lib.a(patch.o)
 .debug_info    0x00000000000408a9     0x143e editors/lib.a(sed.o)
 .debug_info    0x0000000000041ce7     0x2d6a editors/lib.a(vi.o)
 .debug_info    0x0000000000044a51     0x1a76 findutils/lib.a(find.o)
 .debug_info    0x00000000000464c7      0xbe0 findutils/lib.a(grep.o)
 .debug_info    0x00000000000470a7      0x643 findutils/lib.a(xargs.o)
 .debug_info    0x00000000000476ea       0xae libbb/lib.a(ask_confirmation.o)
 .debug_info    0x0000000000047798       0xcf libbb/lib.a(bb_cat.o)
 .debug_info    0x0000000000047867       0xab libbb/lib.a(bb_getgroups.o)
 .debug_info    0x0000000000047912      0x492 libbb/lib.a(bb_pwd.o)
 .debug_info    0x0000000000047da4       0xbc libbb/lib.a(bb_qsort.o)
 .debug_info    0x0000000000047e60       0x6b libbb/lib.a(chomp.o)
 .debug_info    0x0000000000047ecb       0x50 libbb/lib.a(common_bufsiz.o)
 .debug_info    0x0000000000047f1b       0x75 libbb/lib.a(concat_subpath_file.o)
 .debug_info    0x0000000000047f90       0xc9 libbb/lib.a(const_hack.o)
 .debug_info    0x0000000000048059      0x600 libbb/lib.a(copy_file.o)
 .debug_info    0x0000000000048659      0x1f5 libbb/lib.a(crc32.o)
 .debug_info    0x000000000004884e      0x239 libbb/lib.a(duration.o)
 .debug_info    0x0000000000048a87       0xbf libbb/lib.a(endofname.o)
 .debug_info    0x0000000000048b46      0x34a libbb/lib.a(executable.o)
 .debug_info    0x0000000000048e90       0x7f libbb/lib.a(fclose_nonstdin.o)
 .debug_info    0x0000000000048f0f       0x6c libbb/lib.a(fflush_stdout_and_exit.o)
 .debug_info    0x0000000000048f7b      0x1e7 libbb/lib.a(fgets_str.o)
 .debug_info    0x0000000000049162      0x32b libbb/lib.a(find_mount_point.o)
 .debug_info    0x000000000004948d      0x14d libbb/lib.a(get_line_from_file.o)
 .debug_info    0x00000000000495da      0x124 libbb/lib.a(get_shell_name.o)
 .debug_info    0x00000000000496fe     0x100a libbb/lib.a(hash_md5_sha.o)
 .debug_info    0x000000000004a708      0x1bb libbb/lib.a(hash_md5_sha256_x86-64_shaNI.o)
 .debug_info    0x000000000004a8c3      0x19a libbb/lib.a(hash_md5_sha_x86-64_shaNI.o)
 .debug_info    0x000000000004aa5d      0x217 libbb/lib.a(human_readable.o)
 .debug_info    0x000000000004ac74       0xde libbb/lib.a(inet_cksum.o)
 .debug_info    0x000000000004ad52      0x348 libbb/lib.a(inode_hash.o)
 .debug_info    0x000000000004b09a      0x286 libbb/lib.a(isdirectory.o)
 .debug_info    0x000000000004b320       0x8e libbb/lib.a(isqrt.o)
 .debug_info    0x000000000004b3ae     0x1d58 libbb/lib.a(lineedit.o)
 .debug_info    0x000000000004d106       0x3e libbb/lib.a(lineedit_ptr_hack.o)
 .debug_info    0x000000000004d144      0x3a7 libbb/lib.a(make_directory.o)
 .debug_info    0x000000000004d4eb      0x137 libbb/lib.a(mode_string.o)
 .debug_info    0x000000000004d622      0x246 libbb/lib.a(parse_mode.o)
 .debug_info    0x000000000004d868      0x10d libbb/lib.a(percent_decode.o)
 .debug_info    0x000000000004d975       0x40 libbb/lib.a(perror_nomsg_and_die.o)
 .debug_info    0x000000000004d9b5      0x147 libbb/lib.a(print_numbered_lines.o)
 .debug_info    0x000000000004dafc      0x11b libbb/lib.a(printable.o)
 .debug_info    0x000000000004dc17      0x125 libbb/lib.a(printable_string.o)
 .debug_info    0x000000000004dd3c      0x18c libbb/lib.a(process_escape_sequence.o)
 .debug_info    0x000000000004dec8      0x8f7 libbb/lib.a(procps.o)
 .debug_info    0x000000000004e7bf      0x262 libbb/lib.a(progress.o)
 .debug_info    0x000000000004ea21      0x313 libbb/lib.a(read_key.o)
 .debug_info    0x000000000004ed34      0x581 libbb/lib.a(read_printf.o)
 .debug_info    0x000000000004f2b5      0x4e8 libbb/lib.a(recursive_action.o)
 .debug_info    0x000000000004f79d      0x3f1 libbb/lib.a(remove_file.o)
 .debug_info    0x000000000004fb8e      0x159 libbb/lib.a(replace.o)
 .debug_info    0x000000000004fce7       0xc7 libbb/lib.a(safe_gethostname.o)
 .debug_info    0x000000000004fdae       0xe1 libbb/lib.a(safe_poll.o)
 .debug_info    0x000000000004fe8f       0x65 libbb/lib.a(single_argv.o)
 .debug_info    0x000000000004fef4       0xd2 libbb/lib.a(skip_whitespace.o)
 .debug_info    0x000000000004ffc6       0xc2 libbb/lib.a(str_tolower.o)
 .debug_info    0x0000000000050088       0x4b libbb/lib.a(sysconf.o)
 .debug_info    0x00000000000500d3      0x118 libbb/lib.a(u_signal_names.o)
 .debug_info    0x00000000000501eb      0x92f libbb/lib.a(unicode.o)
 .debug_info    0x0000000000050b1a      0x2a5 libbb/lib.a(uuencode.o)
 .debug_info    0x0000000000050dbf      0x1d4 libbb/lib.a(wfopen.o)
 .debug_info    0x0000000000050f93      0x131 libbb/lib.a(wfopen_input.o)
 .debug_info    0x00000000000510c4      0xf6e libbb/lib.a(xconnect.o)
 .debug_info    0x0000000000052032       0xb9 libbb/lib.a(xrealloc_vector.o)
 .debug_info    0x00000000000520eb      0x179 libbb/lib.a(xregcomp.o)
 .debug_info    0x0000000000052264       0xc1 libbb/lib.a(auto_string.o)
 .debug_info    0x0000000000052325      0x281 libpwdgrp/lib.a(uidgid_get.o)
 .debug_info    0x00000000000525a6      0x22a libres/lib.a(dnscruft3.o)
 .debug_info    0x00000000000527d0      0x16c libres/lib.a(freeaddrinfo.o)
 .debug_info    0x000000000005293c      0x53a libres/lib.a(getaddrinfo.o)
 .debug_info    0x0000000000052e76      0x154 libres/lib.a(gethostbyname2_r.o)
 .debug_info    0x0000000000052fca       0x4b libres/lib.a(res_init.o)
 .debug_info    0x0000000000053015      0x3fd libres/lib.a(dnscruft.o)
 .debug_info    0x0000000000053412      0x282 libres/lib.a(dnscruft2.o)
 .debug_info    0x0000000000053694      0x26d libres/lib.a(res_query.o)
 .debug_info    0x0000000000053901       0x3b libres/lib.a(h_errno.o)
 .debug_info    0x000000000005393c      0x193 libres/lib.a(res_mkquery.o)

.debug_ranges   0x0000000000000000     0xdb40
 .debug_ranges  0x0000000000000000      0x130 libbb/lib.a(appletlib.o)
 .debug_ranges  0x0000000000000130       0xb0 libbb/lib.a(compare_string_array.o)
 .debug_ranges  0x00000000000001e0       0x40 libbb/lib.a(get_last_path_component.o)
 .debug_ranges  0x0000000000000220       0x50 libbb/lib.a(perror_msg.o)
 .debug_ranges  0x0000000000000270       0x90 libbb/lib.a(verror_msg.o)
 .debug_ranges  0x0000000000000300       0xb0 libbb/lib.a(vfork_daemon_rexec.o)
 .debug_ranges  0x00000000000003b0      0x1d0 libbb/lib.a(xfuncs.o)
 .debug_ranges  0x0000000000000580      0x490 libbb/lib.a(xfuncs_printf.o)
 .debug_ranges  0x0000000000000a10       0x90 libbb/lib.a(xreadlink.o)
 .debug_ranges  0x0000000000000aa0       0xe0 libbb/lib.a(copyfd.o)
 .debug_ranges  0x0000000000000b80       0xa0 libbb/lib.a(getopt32.o)
 .debug_ranges  0x0000000000000c20       0x80 libbb/lib.a(llist.o)
 .debug_ranges  0x0000000000000ca0       0x50 libbb/lib.a(read.o)
 .debug_ranges  0x0000000000000cf0       0x30 libbb/lib.a(safe_strncpy.o)
 .debug_ranges  0x0000000000000d20       0xd0 libbb/lib.a(signals.o)
 .debug_ranges  0x0000000000000df0       0xd0 libbb/lib.a(time.o)
 .debug_ranges  0x0000000000000ec0      0x240 libbb/lib.a(xatonum.o)
 .debug_ranges  0x0000000000001100       0x60 libbb/lib.a(bb_strtonum.o)
 .debug_ranges  0x0000000000001160       0x40 networking/lib.a(nslookup.o)
 .debug_ranges  0x00000000000011a0      0x240 networking/lib.a(ping.o)
 .debug_ranges  0x00000000000013e0      0x320 networking/lib.a(wget.o)
 .debug_ranges  0x0000000000001700      0x460 networking/lib.a(tls.o)
 .debug_ranges  0x0000000000001b60       0x80 networking/lib.a(tls_aes.o)
 .debug_ranges  0x0000000000001be0       0x30 networking/lib.a(tls_aesgcm.o)
 .debug_ranges  0x0000000000001c10       0x90 networking/lib.a(tls_fe.o)
 .debug_ranges  0x0000000000001ca0      0x260 networking/lib.a(tls_pstm.o)
 .debug_ranges  0x0000000000001f00       0x30 networking/lib.a(tls_pstm_sqr_comba.o)
 .debug_ranges  0x0000000000001f30       0x70 networking/lib.a(tls_rsa.o)
 .debug_ranges  0x0000000000001fa0      0x140 networking/lib.a(tls_sp_c32.o)
 .debug_ranges  0x00000000000020e0     0x21d0 shell/lib.a(ash.o)
 .debug_ranges  0x00000000000042b0       0x40 shell/lib.a(cttyhack.o)
 .debug_ranges  0x00000000000042f0      0x200 shell/lib.a(math.o)
 .debug_ranges  0x00000000000044f0      0x100 shell/lib.a(shell_common.o)
 .debug_ranges  0x00000000000045f0       0x60 dowork/lib.a(dowork.o)
 .debug_ranges  0x0000000000004650       0x90 archival/lib.a(ar.o)
 .debug_ranges  0x00000000000046e0       0xe0 archival/lib.a(bbunzip.o)
 .debug_ranges  0x00000000000047c0      0x490 archival/lib.a(bzip2.o)
 .debug_ranges  0x0000000000004c50      0x140 archival/lib.a(cpio.o)
 .debug_ranges  0x0000000000004d90      0x530 archival/lib.a(dpkg.o)
 .debug_ranges  0x00000000000052c0      0x1e0 archival/lib.a(gzip.o)
 .debug_ranges  0x00000000000054a0      0x140 archival/lib.a(rpm.o)
 .debug_ranges  0x00000000000055e0      0x120 archival/lib.a(tar.o)
 .debug_ranges  0x0000000000005700      0x330 archival/lib.a(unzip.o)
 .debug_ranges  0x0000000000005a30       0x90 archival/libarchive/lib.a(data_extract_all.o)
 .debug_ranges  0x0000000000005ac0       0x90 archival/libarchive/lib.a(data_extract_to_command.o)
 .debug_ranges  0x0000000000005b50      0x210 archival/libarchive/lib.a(decompress_bunzip2.o)
 .debug_ranges  0x0000000000005d60      0x2b0 archival/libarchive/lib.a(decompress_gunzip.o)
 .debug_ranges  0x0000000000006010      0x110 archival/libarchive/lib.a(decompress_uncompress.o)
 .debug_ranges  0x0000000000006120      0x520 archival/libarchive/lib.a(decompress_unlzma.o)
 .debug_ranges  0x0000000000006640      0x9c0 archival/libarchive/lib.a(decompress_unxz.o)
 .debug_ranges  0x0000000000007000       0x30 archival/libarchive/lib.a(find_list_entry.o)
 .debug_ranges  0x0000000000007030       0x60 archival/libarchive/lib.a(get_header_cpio.o)
 .debug_ranges  0x0000000000007090       0xd0 archival/libarchive/lib.a(get_header_tar.o)
 .debug_ranges  0x0000000000007160      0x110 archival/libarchive/lib.a(open_transformer.o)
 .debug_ranges  0x0000000000007270       0x40 archival/libarchive/lib.a(unsafe_prefix.o)
 .debug_ranges  0x00000000000072b0       0x60 archival/libarchive/lib.a(unsafe_symlink_target.o)
 .debug_ranges  0x0000000000007310       0x60 archival/libarchive/lib.a(get_header_ar.o)
 .debug_ranges  0x0000000000007370       0x60 coreutils/lib.a(cat.o)
 .debug_ranges  0x00000000000073d0       0x30 coreutils/lib.a(chmod.o)
 .debug_ranges  0x0000000000007400       0x30 coreutils/lib.a(chown.o)
 .debug_ranges  0x0000000000007430       0xd0 coreutils/lib.a(cksum.o)
 .debug_ranges  0x0000000000007500       0x30 coreutils/lib.a(comm.o)
 .debug_ranges  0x0000000000007530      0x210 coreutils/lib.a(cut.o)
 .debug_ranges  0x0000000000007740       0x60 coreutils/lib.a(date.o)
 .debug_ranges  0x00000000000077a0      0x200 coreutils/lib.a(dd.o)
 .debug_ranges  0x00000000000079a0      0x140 coreutils/lib.a(df.o)
 .debug_ranges  0x0000000000007ae0       0x60 coreutils/lib.a(dos2unix.o)
 .debug_ranges  0x0000000000007b40       0x80 coreutils/lib.a(du.o)
 .debug_ranges  0x0000000000007bc0       0x30 coreutils/lib.a(echo.o)
 .debug_ranges  0x0000000000007bf0       0x30 coreutils/lib.a(expand.o)
 .debug_ranges  0x0000000000007c20      0x150 coreutils/lib.a(expr.o)
 .debug_ranges  0x0000000000007d70       0x70 coreutils/lib.a(factor.o)
 .debug_ranges  0x0000000000007de0       0x70 coreutils/lib.a(fold.o)
 .debug_ranges  0x0000000000007e50       0xf0 coreutils/lib.a(head.o)
 .debug_ranges  0x0000000000007f40      0x1c0 coreutils/lib.a(ls.o)
 .debug_ranges  0x0000000000008100      0x100 coreutils/lib.a(md5_sha1_sum.o)
 .debug_ranges  0x0000000000008200       0x30 coreutils/lib.a(mkdir.o)
 .debug_ranges  0x0000000000008230       0x50 coreutils/lib.a(mv.o)
 .debug_ranges  0x0000000000008280       0x40 coreutils/lib.a(printenv.o)
 .debug_ranges  0x00000000000082c0      0x100 coreutils/lib.a(printf.o)
 .debug_ranges  0x00000000000083c0       0x30 coreutils/lib.a(realpath.o)
 .debug_ranges  0x00000000000083f0       0x30 coreutils/lib.a(rm.o)
 .debug_ranges  0x0000000000008420       0x30 coreutils/lib.a(seq.o)
 .debug_ranges  0x0000000000008450       0x60 coreutils/lib.a(shred.o)
 .debug_ranges  0x00000000000084b0       0x70 coreutils/lib.a(shuf.o)
 .debug_ranges  0x0000000000008520      0x2d0 coreutils/lib.a(sort.o)
 .debug_ranges  0x00000000000087f0       0x70 coreutils/lib.a(sum.o)
 .debug_ranges  0x0000000000008860      0x2c0 coreutils/lib.a(tail.o)
 .debug_ranges  0x0000000000008b20      0x1e0 coreutils/lib.a(test.o)
 .debug_ranges  0x0000000000008d00       0x40 coreutils/lib.a(touch.o)
 .debug_ranges  0x0000000000008d40       0x90 coreutils/lib.a(tr.o)
 .debug_ranges  0x0000000000008dd0       0x80 coreutils/lib.a(tsort.o)
 .debug_ranges  0x0000000000008e50       0x70 coreutils/lib.a(uniq.o)
 .debug_ranges  0x0000000000008ec0       0x60 coreutils/lib.a(uudecode.o)
 .debug_ranges  0x0000000000008f20       0x70 coreutils/lib.a(wc.o)
 .debug_ranges  0x0000000000008f90       0x30 coreutils/libcoreutils/lib.a(cp_mv_stat.o)
 .debug_ranges  0x0000000000008fc0       0x30 debianutils/lib.a(pipe_progress.o)
 .debug_ranges  0x0000000000008ff0       0x40 debianutils/lib.a(run_parts.o)
 .debug_ranges  0x0000000000009030       0x70 debianutils/lib.a(which.o)
 .debug_ranges  0x00000000000090a0      0xc30 editors/lib.a(awk.o)
 .debug_ranges  0x0000000000009cd0      0x430 editors/lib.a(diff.o)
 .debug_ranges  0x000000000000a100      0x140 editors/lib.a(ed.o)
 .debug_ranges  0x000000000000a240      0x2b0 editors/lib.a(patch.o)
 .debug_ranges  0x000000000000a4f0      0x590 editors/lib.a(sed.o)
 .debug_ranges  0x000000000000aa80      0xad0 editors/lib.a(vi.o)
 .debug_ranges  0x000000000000b550      0x400 findutils/lib.a(find.o)
 .debug_ranges  0x000000000000b950      0x150 findutils/lib.a(grep.o)
 .debug_ranges  0x000000000000baa0      0x170 findutils/lib.a(xargs.o)
 .debug_ranges  0x000000000000bc10       0x30 libbb/lib.a(ask_confirmation.o)
 .debug_ranges  0x000000000000bc40       0xe0 libbb/lib.a(bb_pwd.o)
 .debug_ranges  0x000000000000bd20       0x30 libbb/lib.a(bb_qsort.o)
 .debug_ranges  0x000000000000bd50      0x220 libbb/lib.a(copy_file.o)
 .debug_ranges  0x000000000000bf70       0x60 libbb/lib.a(crc32.o)
 .debug_ranges  0x000000000000bfd0       0x60 libbb/lib.a(duration.o)
 .debug_ranges  0x000000000000c030       0x80 libbb/lib.a(executable.o)
 .debug_ranges  0x000000000000c0b0       0x30 libbb/lib.a(fflush_stdout_and_exit.o)
 .debug_ranges  0x000000000000c0e0       0x50 libbb/lib.a(fgets_str.o)
 .debug_ranges  0x000000000000c130       0x40 libbb/lib.a(get_line_from_file.o)
 .debug_ranges  0x000000000000c170      0x1c0 libbb/lib.a(hash_md5_sha.o)
 .debug_ranges  0x000000000000c330       0x40 libbb/lib.a(human_readable.o)
 .debug_ranges  0x000000000000c370       0x30 libbb/lib.a(inode_hash.o)
 .debug_ranges  0x000000000000c3a0      0x6f0 libbb/lib.a(lineedit.o)
 .debug_ranges  0x000000000000ca90       0x30 libbb/lib.a(parse_mode.o)
 .debug_ranges  0x000000000000cac0       0x80 libbb/lib.a(percent_decode.o)
 .debug_ranges  0x000000000000cb40       0x30 libbb/lib.a(printable.o)
 .debug_ranges  0x000000000000cb70       0x60 libbb/lib.a(printable_string.o)
 .debug_ranges  0x000000000000cbd0       0x80 libbb/lib.a(process_escape_sequence.o)
 .debug_ranges  0x000000000000cc50      0x130 libbb/lib.a(procps.o)
 .debug_ranges  0x000000000000cd80       0x30 libbb/lib.a(progress.o)
 .debug_ranges  0x000000000000cdb0       0xf0 libbb/lib.a(read_key.o)
 .debug_ranges  0x000000000000cea0       0xc0 libbb/lib.a(read_printf.o)
 .debug_ranges  0x000000000000cf60       0x40 libbb/lib.a(recursive_action.o)
 .debug_ranges  0x000000000000cfa0       0x40 libbb/lib.a(remove_file.o)
 .debug_ranges  0x000000000000cfe0       0x30 libbb/lib.a(replace.o)
 .debug_ranges  0x000000000000d010       0x40 libbb/lib.a(skip_whitespace.o)
 .debug_ranges  0x000000000000d050       0x40 libbb/lib.a(u_signal_names.o)
 .debug_ranges  0x000000000000d090      0x1f0 libbb/lib.a(unicode.o)
 .debug_ranges  0x000000000000d280       0xd0 libbb/lib.a(uuencode.o)
 .debug_ranges  0x000000000000d350       0x90 libbb/lib.a(wfopen.o)
 .debug_ranges  0x000000000000d3e0       0x50 libbb/lib.a(wfopen_input.o)
 .debug_ranges  0x000000000000d430      0x2d0 libbb/lib.a(xconnect.o)
 .debug_ranges  0x000000000000d700       0x30 libbb/lib.a(xregcomp.o)
 .debug_ranges  0x000000000000d730       0x40 libpwdgrp/lib.a(uidgid_get.o)
 .debug_ranges  0x000000000000d770      0x180 libres/lib.a(getaddrinfo.o)
 .debug_ranges  0x000000000000d8f0       0xb0 libres/lib.a(dnscruft.o)
 .debug_ranges  0x000000000000d9a0      0x120 libres/lib.a(dnscruft2.o)
 .debug_ranges  0x000000000000dac0       0x80 libres/lib.a(res_query.o)

.debug_macinfo  0x0000000000000000       0xee
 .debug_macinfo
                0x0000000000000000        0x1 libbb/lib.a(appletlib.o)
 .debug_macinfo
                0x0000000000000001        0x1 libbb/lib.a(compare_string_array.o)
 .debug_macinfo
                0x0000000000000002        0x1 libbb/lib.a(concat_path_file.o)
 .debug_macinfo
                0x0000000000000003        0x1 libbb/lib.a(default_error_retval.o)
 .debug_macinfo
                0x0000000000000004        0x1 libbb/lib.a(get_last_path_component.o)
 .debug_macinfo
                0x0000000000000005        0x1 libbb/lib.a(last_char_is.o)
 .debug_macinfo
                0x0000000000000006        0x1 libbb/lib.a(messages.o)
 .debug_macinfo
                0x0000000000000007        0x1 libbb/lib.a(perror_msg.o)
 .debug_macinfo
                0x0000000000000008        0x1 libbb/lib.a(ptr_to_globals.o)
 .debug_macinfo
                0x0000000000000009        0x1 libbb/lib.a(verror_msg.o)
 .debug_macinfo
                0x000000000000000a        0x1 libbb/lib.a(vfork_daemon_rexec.o)
 .debug_macinfo
                0x000000000000000b        0x1 libbb/lib.a(xfunc_die.o)
 .debug_macinfo
                0x000000000000000c        0x1 libbb/lib.a(xfuncs.o)
 .debug_macinfo
                0x000000000000000d        0x1 libbb/lib.a(xfuncs_printf.o)
 .debug_macinfo
                0x000000000000000e        0x1 libbb/lib.a(xreadlink.o)
 .debug_macinfo
                0x000000000000000f        0x1 libbb/lib.a(copyfd.o)
 .debug_macinfo
                0x0000000000000010        0x1 libbb/lib.a(full_write.o)
 .debug_macinfo
                0x0000000000000011        0x1 libbb/lib.a(getopt32.o)
 .debug_macinfo
                0x0000000000000012        0x1 libbb/lib.a(llist.o)
 .debug_macinfo
                0x0000000000000013        0x1 libbb/lib.a(read.o)
 .debug_macinfo
                0x0000000000000014        0x1 libbb/lib.a(safe_strncpy.o)
 .debug_macinfo
                0x0000000000000015        0x1 libbb/lib.a(safe_write.o)
 .debug_macinfo
                0x0000000000000016        0x1 libbb/lib.a(signals.o)
 .debug_macinfo
                0x0000000000000017        0x1 libbb/lib.a(time.o)
 .debug_macinfo
                0x0000000000000018        0x1 libbb/lib.a(xatonum.o)
 .debug_macinfo
                0x0000000000000019        0x1 libbb/lib.a(xgetcwd.o)
 .debug_macinfo
                0x000000000000001a        0x1 libbb/lib.a(bb_strtonum.o)
 .debug_macinfo
                0x000000000000001b        0x1 miscutils/lib.a(readahead.o)
 .debug_macinfo
                0x000000000000001c        0x1 networking/lib.a(nslookup.o)
 .debug_macinfo
                0x000000000000001d        0x1 networking/lib.a(ping.o)
 .debug_macinfo
                0x000000000000001e        0x1 networking/lib.a(wget.o)
 .debug_macinfo
                0x000000000000001f        0x1 networking/lib.a(parse_pasv_epsv.o)
 .debug_macinfo
                0x0000000000000020        0x1 networking/lib.a(tls.o)
 .debug_macinfo
                0x0000000000000021        0x1 networking/lib.a(tls_aes.o)
 .debug_macinfo
                0x0000000000000022        0x1 networking/lib.a(tls_aesgcm.o)
 .debug_macinfo
                0x0000000000000023        0x1 networking/lib.a(tls_fe.o)
 .debug_macinfo
                0x0000000000000024        0x1 networking/lib.a(tls_pstm.o)
 .debug_macinfo
                0x0000000000000025        0x1 networking/lib.a(tls_pstm_montgomery_reduce.o)
 .debug_macinfo
                0x0000000000000026        0x1 networking/lib.a(tls_pstm_mul_comba.o)
 .debug_macinfo
                0x0000000000000027        0x1 networking/lib.a(tls_pstm_sqr_comba.o)
 .debug_macinfo
                0x0000000000000028        0x1 networking/lib.a(tls_rsa.o)
 .debug_macinfo
                0x0000000000000029        0x1 networking/lib.a(tls_sp_c32.o)
 .debug_macinfo
                0x000000000000002a        0x1 procps/lib.a(kill.o)
 .debug_macinfo
                0x000000000000002b        0x1 procps/lib.a(lsof.o)
 .debug_macinfo
                0x000000000000002c        0x1 shell/lib.a(ash.o)
 .debug_macinfo
                0x000000000000002d        0x1 shell/lib.a(ash_ptr_hack.o)
 .debug_macinfo
                0x000000000000002e        0x1 shell/lib.a(cttyhack.o)
 .debug_macinfo
                0x000000000000002f        0x1 shell/lib.a(math.o)
 .debug_macinfo
                0x0000000000000030        0x1 shell/lib.a(random.o)
 .debug_macinfo
                0x0000000000000031        0x1 shell/lib.a(shell_common.o)
 .debug_macinfo
                0x0000000000000032        0x1 dowork/lib.a(dowork.o)
 .debug_macinfo
                0x0000000000000033        0x1 archival/lib.a(ar.o)
 .debug_macinfo
                0x0000000000000034        0x1 archival/lib.a(bbunzip.o)
 .debug_macinfo
                0x0000000000000035        0x1 archival/lib.a(bzip2.o)
 .debug_macinfo
                0x0000000000000036        0x1 archival/lib.a(cpio.o)
 .debug_macinfo
                0x0000000000000037        0x1 archival/lib.a(dpkg.o)
 .debug_macinfo
                0x0000000000000038        0x1 archival/lib.a(dpkg_deb.o)
 .debug_macinfo
                0x0000000000000039        0x1 archival/lib.a(gzip.o)
 .debug_macinfo
                0x000000000000003a        0x1 archival/lib.a(rpm.o)
 .debug_macinfo
                0x000000000000003b        0x1 archival/lib.a(tar.o)
 .debug_macinfo
                0x000000000000003c        0x1 archival/lib.a(unzip.o)
 .debug_macinfo
                0x000000000000003d        0x1 archival/lib.a(chksum_and_xwrite_tar_header.o)
 .debug_macinfo
                0x000000000000003e        0x1 archival/libarchive/lib.a(common.o)
 .debug_macinfo
                0x000000000000003f        0x1 archival/libarchive/lib.a(data_extract_all.o)
 .debug_macinfo
                0x0000000000000040        0x1 archival/libarchive/lib.a(data_extract_to_command.o)
 .debug_macinfo
                0x0000000000000041        0x1 archival/libarchive/lib.a(data_extract_to_stdout.o)
 .debug_macinfo
                0x0000000000000042        0x1 archival/libarchive/lib.a(data_skip.o)
 .debug_macinfo
                0x0000000000000043        0x1 archival/libarchive/lib.a(decompress_bunzip2.o)
 .debug_macinfo
                0x0000000000000044        0x1 archival/libarchive/lib.a(decompress_gunzip.o)
 .debug_macinfo
                0x0000000000000045        0x1 archival/libarchive/lib.a(decompress_uncompress.o)
 .debug_macinfo
                0x0000000000000046        0x1 archival/libarchive/lib.a(decompress_unlzma.o)
 .debug_macinfo
                0x0000000000000047        0x1 archival/libarchive/lib.a(decompress_unxz.o)
 .debug_macinfo
                0x0000000000000048        0x1 archival/libarchive/lib.a(filter_accept_list.o)
 .debug_macinfo
                0x0000000000000049        0x1 archival/libarchive/lib.a(filter_accept_list_reassign.o)
 .debug_macinfo
                0x000000000000004a        0x1 archival/libarchive/lib.a(filter_accept_reject_list.o)
 .debug_macinfo
                0x000000000000004b        0x1 archival/libarchive/lib.a(find_list_entry.o)
 .debug_macinfo
                0x000000000000004c        0x1 archival/libarchive/lib.a(get_header_cpio.o)
 .debug_macinfo
                0x000000000000004d        0x1 archival/libarchive/lib.a(get_header_tar.o)
 .debug_macinfo
                0x000000000000004e        0x1 archival/libarchive/lib.a(get_header_tar_bz2.o)
 .debug_macinfo
                0x000000000000004f        0x1 archival/libarchive/lib.a(get_header_tar_gz.o)
 .debug_macinfo
                0x0000000000000050        0x1 archival/libarchive/lib.a(get_header_tar_lzma.o)
 .debug_macinfo
                0x0000000000000051        0x1 archival/libarchive/lib.a(get_header_tar_xz.o)
 .debug_macinfo
                0x0000000000000052        0x1 archival/libarchive/lib.a(header_list.o)
 .debug_macinfo
                0x0000000000000053        0x1 archival/libarchive/lib.a(header_verbose_list.o)
 .debug_macinfo
                0x0000000000000054        0x1 archival/libarchive/lib.a(init_handle.o)
 .debug_macinfo
                0x0000000000000055        0x1 archival/libarchive/lib.a(open_transformer.o)
 .debug_macinfo
                0x0000000000000056        0x1 archival/libarchive/lib.a(seek_by_jump.o)
 .debug_macinfo
                0x0000000000000057        0x1 archival/libarchive/lib.a(seek_by_read.o)
 .debug_macinfo
                0x0000000000000058        0x1 archival/libarchive/lib.a(unpack_ar_archive.o)
 .debug_macinfo
                0x0000000000000059        0x1 archival/libarchive/lib.a(unsafe_prefix.o)
 .debug_macinfo
                0x000000000000005a        0x1 archival/libarchive/lib.a(unsafe_symlink_target.o)
 .debug_macinfo
                0x000000000000005b        0x1 archival/libarchive/lib.a(data_align.o)
 .debug_macinfo
                0x000000000000005c        0x1 archival/libarchive/lib.a(filter_accept_all.o)
 .debug_macinfo
                0x000000000000005d        0x1 archival/libarchive/lib.a(get_header_ar.o)
 .debug_macinfo
                0x000000000000005e        0x1 archival/libarchive/lib.a(header_skip.o)
 .debug_macinfo
                0x000000000000005f        0x1 console-tools/lib.a(clear.o)
 .debug_macinfo
                0x0000000000000060        0x1 coreutils/lib.a(cat.o)
 .debug_macinfo
                0x0000000000000061        0x1 coreutils/lib.a(chgrp.o)
 .debug_macinfo
                0x0000000000000062        0x1 coreutils/lib.a(chmod.o)
 .debug_macinfo
                0x0000000000000063        0x1 coreutils/lib.a(chown.o)
 .debug_macinfo
                0x0000000000000064        0x1 coreutils/lib.a(chroot.o)
 .debug_macinfo
                0x0000000000000065        0x1 coreutils/lib.a(cksum.o)
 .debug_macinfo
                0x0000000000000066        0x1 coreutils/lib.a(comm.o)
 .debug_macinfo
                0x0000000000000067        0x1 coreutils/lib.a(cp.o)
 .debug_macinfo
                0x0000000000000068        0x1 coreutils/lib.a(cut.o)
 .debug_macinfo
                0x0000000000000069        0x1 coreutils/lib.a(date.o)
 .debug_macinfo
                0x000000000000006a        0x1 coreutils/lib.a(dd.o)
 .debug_macinfo
                0x000000000000006b        0x1 coreutils/lib.a(df.o)
 .debug_macinfo
                0x000000000000006c        0x1 coreutils/lib.a(dirname.o)
 .debug_macinfo
                0x000000000000006d        0x1 coreutils/lib.a(dos2unix.o)
 .debug_macinfo
                0x000000000000006e        0x1 coreutils/lib.a(du.o)
 .debug_macinfo
                0x000000000000006f        0x1 coreutils/lib.a(echo.o)
 .debug_macinfo
                0x0000000000000070        0x1 coreutils/lib.a(env.o)
 .debug_macinfo
                0x0000000000000071        0x1 coreutils/lib.a(expand.o)
 .debug_macinfo
                0x0000000000000072        0x1 coreutils/lib.a(expr.o)
 .debug_macinfo
                0x0000000000000073        0x1 coreutils/lib.a(factor.o)
 .debug_macinfo
                0x0000000000000074        0x1 coreutils/lib.a(fold.o)
 .debug_macinfo
                0x0000000000000075        0x1 coreutils/lib.a(head.o)
 .debug_macinfo
                0x0000000000000076        0x1 coreutils/lib.a(link.o)
 .debug_macinfo
                0x0000000000000077        0x1 coreutils/lib.a(ln.o)
 .debug_macinfo
                0x0000000000000078        0x1 coreutils/lib.a(ls.o)
 .debug_macinfo
                0x0000000000000079        0x1 coreutils/lib.a(md5_sha1_sum.o)
 .debug_macinfo
                0x000000000000007a        0x1 coreutils/lib.a(mkdir.o)
 .debug_macinfo
                0x000000000000007b        0x1 coreutils/lib.a(mv.o)
 .debug_macinfo
                0x000000000000007c        0x1 coreutils/lib.a(nl.o)
 .debug_macinfo
                0x000000000000007d        0x1 coreutils/lib.a(nohup.o)
 .debug_macinfo
                0x000000000000007e        0x1 coreutils/lib.a(printenv.o)
 .debug_macinfo
                0x000000000000007f        0x1 coreutils/lib.a(printf.o)
 .debug_macinfo
                0x0000000000000080        0x1 coreutils/lib.a(pwd.o)
 .debug_macinfo
                0x0000000000000081        0x1 coreutils/lib.a(readlink.o)
 .debug_macinfo
                0x0000000000000082        0x1 coreutils/lib.a(realpath.o)
 .debug_macinfo
                0x0000000000000083        0x1 coreutils/lib.a(rm.o)
 .debug_macinfo
                0x0000000000000084        0x1 coreutils/lib.a(rmdir.o)
 .debug_macinfo
                0x0000000000000085        0x1 coreutils/lib.a(seq.o)
 .debug_macinfo
                0x0000000000000086        0x1 coreutils/lib.a(shred.o)
 .debug_macinfo
                0x0000000000000087        0x1 coreutils/lib.a(shuf.o)
 .debug_macinfo
                0x0000000000000088        0x1 coreutils/lib.a(sleep.o)
 .debug_macinfo
                0x0000000000000089        0x1 coreutils/lib.a(sort.o)
 .debug_macinfo
                0x000000000000008a        0x1 coreutils/lib.a(split.o)
 .debug_macinfo
                0x000000000000008b        0x1 coreutils/lib.a(sum.o)
 .debug_macinfo
                0x000000000000008c        0x1 coreutils/lib.a(tail.o)
 .debug_macinfo
                0x000000000000008d        0x1 coreutils/lib.a(test.o)
 .debug_macinfo
                0x000000000000008e        0x1 coreutils/lib.a(test_ptr_hack.o)
 .debug_macinfo
                0x000000000000008f        0x1 coreutils/lib.a(touch.o)
 .debug_macinfo
                0x0000000000000090        0x1 coreutils/lib.a(tr.o)
 .debug_macinfo
                0x0000000000000091        0x1 coreutils/lib.a(tsort.o)
 .debug_macinfo
                0x0000000000000092        0x1 coreutils/lib.a(tty.o)
 .debug_macinfo
                0x0000000000000093        0x1 coreutils/lib.a(uname.o)
 .debug_macinfo
                0x0000000000000094        0x1 coreutils/lib.a(uniq.o)
 .debug_macinfo
                0x0000000000000095        0x1 coreutils/lib.a(unlink.o)
 .debug_macinfo
                0x0000000000000096        0x1 coreutils/lib.a(usleep.o)
 .debug_macinfo
                0x0000000000000097        0x1 coreutils/lib.a(uudecode.o)
 .debug_macinfo
                0x0000000000000098        0x1 coreutils/lib.a(wc.o)
 .debug_macinfo
                0x0000000000000099        0x1 coreutils/lib.a(whoami.o)
 .debug_macinfo
                0x000000000000009a        0x1 coreutils/libcoreutils/lib.a(cp_mv_stat.o)
 .debug_macinfo
                0x000000000000009b        0x1 debianutils/lib.a(pipe_progress.o)
 .debug_macinfo
                0x000000000000009c        0x1 debianutils/lib.a(run_parts.o)
 .debug_macinfo
                0x000000000000009d        0x1 debianutils/lib.a(which.o)
 .debug_macinfo
                0x000000000000009e        0x1 editors/lib.a(awk.o)
 .debug_macinfo
                0x000000000000009f        0x1 editors/lib.a(cmp.o)
 .debug_macinfo
                0x00000000000000a0        0x1 editors/lib.a(diff.o)
 .debug_macinfo
                0x00000000000000a1        0x1 editors/lib.a(ed.o)
 .debug_macinfo
                0x00000000000000a2        0x1 editors/lib.a(patch.o)
 .debug_macinfo
                0x00000000000000a3        0x1 editors/lib.a(sed.o)
 .debug_macinfo
                0x00000000000000a4        0x1 editors/lib.a(vi.o)
 .debug_macinfo
                0x00000000000000a5        0x1 findutils/lib.a(find.o)
 .debug_macinfo
                0x00000000000000a6        0x1 findutils/lib.a(grep.o)
 .debug_macinfo
                0x00000000000000a7        0x1 findutils/lib.a(xargs.o)
 .debug_macinfo
                0x00000000000000a8        0x1 libbb/lib.a(ask_confirmation.o)
 .debug_macinfo
                0x00000000000000a9        0x1 libbb/lib.a(bb_cat.o)
 .debug_macinfo
                0x00000000000000aa        0x1 libbb/lib.a(bb_getgroups.o)
 .debug_macinfo
                0x00000000000000ab        0x1 libbb/lib.a(bb_pwd.o)
 .debug_macinfo
                0x00000000000000ac        0x1 libbb/lib.a(bb_qsort.o)
 .debug_macinfo
                0x00000000000000ad        0x1 libbb/lib.a(chomp.o)
 .debug_macinfo
                0x00000000000000ae        0x1 libbb/lib.a(common_bufsiz.o)
 .debug_macinfo
                0x00000000000000af        0x1 libbb/lib.a(concat_subpath_file.o)
 .debug_macinfo
                0x00000000000000b0        0x1 libbb/lib.a(const_hack.o)
 .debug_macinfo
                0x00000000000000b1        0x1 libbb/lib.a(copy_file.o)
 .debug_macinfo
                0x00000000000000b2        0x1 libbb/lib.a(crc32.o)
 .debug_macinfo
                0x00000000000000b3        0x1 libbb/lib.a(duration.o)
 .debug_macinfo
                0x00000000000000b4        0x1 libbb/lib.a(endofname.o)
 .debug_macinfo
                0x00000000000000b5        0x1 libbb/lib.a(executable.o)
 .debug_macinfo
                0x00000000000000b6        0x1 libbb/lib.a(fclose_nonstdin.o)
 .debug_macinfo
                0x00000000000000b7        0x1 libbb/lib.a(fflush_stdout_and_exit.o)
 .debug_macinfo
                0x00000000000000b8        0x1 libbb/lib.a(fgets_str.o)
 .debug_macinfo
                0x00000000000000b9        0x1 libbb/lib.a(find_mount_point.o)
 .debug_macinfo
                0x00000000000000ba        0x1 libbb/lib.a(get_line_from_file.o)
 .debug_macinfo
                0x00000000000000bb        0x1 libbb/lib.a(get_shell_name.o)
 .debug_macinfo
                0x00000000000000bc        0x1 libbb/lib.a(hash_md5_sha.o)
 .debug_macinfo
                0x00000000000000bd        0x1 libbb/lib.a(human_readable.o)
 .debug_macinfo
                0x00000000000000be        0x1 libbb/lib.a(inet_cksum.o)
 .debug_macinfo
                0x00000000000000bf        0x1 libbb/lib.a(inode_hash.o)
 .debug_macinfo
                0x00000000000000c0        0x1 libbb/lib.a(isdirectory.o)
 .debug_macinfo
                0x00000000000000c1        0x1 libbb/lib.a(isqrt.o)
 .debug_macinfo
                0x00000000000000c2        0x1 libbb/lib.a(lineedit.o)
 .debug_macinfo
                0x00000000000000c3        0x1 libbb/lib.a(lineedit_ptr_hack.o)
 .debug_macinfo
                0x00000000000000c4        0x1 libbb/lib.a(make_directory.o)
 .debug_macinfo
                0x00000000000000c5        0x1 libbb/lib.a(mode_string.o)
 .debug_macinfo
                0x00000000000000c6        0x1 libbb/lib.a(parse_mode.o)
 .debug_macinfo
                0x00000000000000c7        0x1 libbb/lib.a(percent_decode.o)
 .debug_macinfo
                0x00000000000000c8        0x1 libbb/lib.a(perror_nomsg_and_die.o)
 .debug_macinfo
                0x00000000000000c9        0x1 libbb/lib.a(print_numbered_lines.o)
 .debug_macinfo
                0x00000000000000ca        0x1 libbb/lib.a(printable.o)
 .debug_macinfo
                0x00000000000000cb        0x1 libbb/lib.a(printable_string.o)
 .debug_macinfo
                0x00000000000000cc        0x1 libbb/lib.a(process_escape_sequence.o)
 .debug_macinfo
                0x00000000000000cd        0x1 libbb/lib.a(procps.o)
 .debug_macinfo
                0x00000000000000ce        0x1 libbb/lib.a(progress.o)
 .debug_macinfo
                0x00000000000000cf        0x1 libbb/lib.a(read_key.o)
 .debug_macinfo
                0x00000000000000d0        0x1 libbb/lib.a(read_printf.o)
 .debug_macinfo
                0x00000000000000d1        0x1 libbb/lib.a(recursive_action.o)
 .debug_macinfo
                0x00000000000000d2        0x1 libbb/lib.a(remove_file.o)
 .debug_macinfo
                0x00000000000000d3        0x1 libbb/lib.a(replace.o)
 .debug_macinfo
                0x00000000000000d4        0x1 libbb/lib.a(safe_gethostname.o)
 .debug_macinfo
                0x00000000000000d5        0x1 libbb/lib.a(safe_poll.o)
 .debug_macinfo
                0x00000000000000d6        0x1 libbb/lib.a(single_argv.o)
 .debug_macinfo
                0x00000000000000d7        0x1 libbb/lib.a(skip_whitespace.o)
 .debug_macinfo
                0x00000000000000d8        0x1 libbb/lib.a(str_tolower.o)
 .debug_macinfo
                0x00000000000000d9        0x1 libbb/lib.a(sysconf.o)
 .debug_macinfo
                0x00000000000000da        0x1 libbb/lib.a(u_signal_names.o)
 .debug_macinfo
                0x00000000000000db        0x1 libbb/lib.a(unicode.o)
 .debug_macinfo
                0x00000000000000dc        0x1 libbb/lib.a(uuencode.o)
 .debug_macinfo
                0x00000000000000dd        0x1 libbb/lib.a(wfopen.o)
 .debug_macinfo
                0x00000000000000de        0x1 libbb/lib.a(wfopen_input.o)
 .debug_macinfo
                0x00000000000000df        0x1 libbb/lib.a(xconnect.o)
 .debug_macinfo
                0x00000000000000e0        0x1 libbb/lib.a(xrealloc_vector.o)
 .debug_macinfo
                0x00000000000000e1        0x1 libbb/lib.a(xregcomp.o)
 .debug_macinfo
                0x00000000000000e2        0x1 libbb/lib.a(auto_string.o)
 .debug_macinfo
                0x00000000000000e3        0x1 libpwdgrp/lib.a(uidgid_get.o)
 .debug_macinfo
                0x00000000000000e4        0x1 libres/lib.a(dnscruft3.o)
 .debug_macinfo
                0x00000000000000e5        0x1 libres/lib.a(freeaddrinfo.o)
 .debug_macinfo
                0x00000000000000e6        0x1 libres/lib.a(getaddrinfo.o)
 .debug_macinfo
                0x00000000000000e7        0x1 libres/lib.a(gethostbyname2_r.o)
 .debug_macinfo
                0x00000000000000e8        0x1 libres/lib.a(res_init.o)
 .debug_macinfo
                0x00000000000000e9        0x1 libres/lib.a(dnscruft.o)
 .debug_macinfo
                0x00000000000000ea        0x1 libres/lib.a(dnscruft2.o)
 .debug_macinfo
                0x00000000000000eb        0x1 libres/lib.a(res_query.o)
 .debug_macinfo
                0x00000000000000ec        0x1 libres/lib.a(h_errno.o)
 .debug_macinfo
                0x00000000000000ed        0x1 libres/lib.a(res_mkquery.o)

.debug_frame    0x0000000000000000    0x16830
 .debug_frame   0x0000000000000000      0x1f8 libbb/lib.a(appletlib.o)
 .debug_frame   0x00000000000001f8      0x150 libbb/lib.a(compare_string_array.o)
 .debug_frame   0x0000000000000348       0x50 libbb/lib.a(concat_path_file.o)
 .debug_frame   0x0000000000000398       0x90 libbb/lib.a(get_last_path_component.o)
 .debug_frame   0x0000000000000428       0x30 libbb/lib.a(last_char_is.o)
 .debug_frame   0x0000000000000458       0xa0 libbb/lib.a(perror_msg.o)
 .debug_frame   0x00000000000004f8      0x100 libbb/lib.a(verror_msg.o)
 .debug_frame   0x00000000000005f8      0x1e0 libbb/lib.a(vfork_daemon_rexec.o)
 .debug_frame   0x00000000000007d8       0x38 libbb/lib.a(xfunc_die.o)
 .debug_frame   0x0000000000000810      0x468 libbb/lib.a(xfuncs.o)
 .debug_frame   0x0000000000000c78      0xaa0 libbb/lib.a(xfuncs_printf.o)
 .debug_frame   0x0000000000001718      0x140 libbb/lib.a(xreadlink.o)
 .debug_frame   0x0000000000001858       0xd8 libbb/lib.a(copyfd.o)
 .debug_frame   0x0000000000001930       0x58 libbb/lib.a(full_write.o)
 .debug_frame   0x0000000000001988       0x90 libbb/lib.a(getopt32.o)
 .debug_frame   0x0000000000001a18      0x138 libbb/lib.a(llist.o)
 .debug_frame   0x0000000000001b50      0x108 libbb/lib.a(read.o)
 .debug_frame   0x0000000000001c58       0x50 libbb/lib.a(safe_strncpy.o)
 .debug_frame   0x0000000000001ca8       0x58 libbb/lib.a(safe_write.o)
 .debug_frame   0x0000000000001d00      0x210 libbb/lib.a(signals.o)
 .debug_frame   0x0000000000001f10      0x208 libbb/lib.a(time.o)
 .debug_frame   0x0000000000002118      0x488 libbb/lib.a(xatonum.o)
 .debug_frame   0x00000000000025a0       0x70 libbb/lib.a(xgetcwd.o)
 .debug_frame   0x0000000000002610      0x108 libbb/lib.a(bb_strtonum.o)
 .debug_frame   0x0000000000002718       0x78 miscutils/lib.a(readahead.o)
 .debug_frame   0x0000000000002790       0xd8 networking/lib.a(nslookup.o)
 .debug_frame   0x0000000000002868      0x1c0 networking/lib.a(ping.o)
 .debug_frame   0x0000000000002a28      0x4f0 networking/lib.a(wget.o)
 .debug_frame   0x0000000000002f18       0x70 networking/lib.a(parse_pasv_epsv.o)
 .debug_frame   0x0000000000002f88      0x688 networking/lib.a(tls.o)
 .debug_frame   0x0000000000003610      0x1c8 networking/lib.a(tls_aes.o)
 .debug_frame   0x00000000000037d8       0xb8 networking/lib.a(tls_aesgcm.o)
 .debug_frame   0x0000000000003890      0x1d0 networking/lib.a(tls_fe.o)
 .debug_frame   0x0000000000003a60      0x660 networking/lib.a(tls_pstm.o)
 .debug_frame   0x00000000000040c0       0x70 networking/lib.a(tls_pstm_montgomery_reduce.o)
 .debug_frame   0x0000000000004130       0x78 networking/lib.a(tls_pstm_mul_comba.o)
 .debug_frame   0x00000000000041a8       0x78 networking/lib.a(tls_pstm_sqr_comba.o)
 .debug_frame   0x0000000000004220       0x78 networking/lib.a(tls_rsa.o)
 .debug_frame   0x0000000000004298      0x3b0 networking/lib.a(tls_sp_c32.o)
 .debug_frame   0x0000000000004648       0x90 procps/lib.a(kill.o)
 .debug_frame   0x00000000000046d8       0x70 procps/lib.a(lsof.o)
 .debug_frame   0x0000000000004748     0x3a58 shell/lib.a(ash.o)
 .debug_frame   0x00000000000081a0       0xa0 shell/lib.a(cttyhack.o)
 .debug_frame   0x0000000000008240      0x110 shell/lib.a(math.o)
 .debug_frame   0x0000000000008350       0x40 shell/lib.a(random.o)
 .debug_frame   0x0000000000008390      0x178 shell/lib.a(shell_common.o)
 .debug_frame   0x0000000000008508       0xd8 dowork/lib.a(dowork.o)
 .debug_frame   0x00000000000085e0      0x140 archival/lib.a(ar.o)
 .debug_frame   0x0000000000008720      0x200 archival/lib.a(bbunzip.o)
 .debug_frame   0x0000000000008920      0x5a0 archival/lib.a(bzip2.o)
 .debug_frame   0x0000000000008ec0      0x150 archival/lib.a(cpio.o)
 .debug_frame   0x0000000000009010      0xa88 archival/lib.a(dpkg.o)
 .debug_frame   0x0000000000009a98       0x70 archival/lib.a(dpkg_deb.o)
 .debug_frame   0x0000000000009b08      0x5e0 archival/lib.a(gzip.o)
 .debug_frame   0x000000000000a0e8      0x2c0 archival/lib.a(rpm.o)
 .debug_frame   0x000000000000a3a8      0x328 archival/lib.a(tar.o)
 .debug_frame   0x000000000000a6d0      0x270 archival/lib.a(unzip.o)
 .debug_frame   0x000000000000a940       0x48 archival/lib.a(chksum_and_xwrite_tar_header.o)
 .debug_frame   0x000000000000a988       0xd0 archival/libarchive/lib.a(data_extract_all.o)
 .debug_frame   0x000000000000aa58      0x148 archival/libarchive/lib.a(data_extract_to_command.o)
 .debug_frame   0x000000000000aba0       0x38 archival/libarchive/lib.a(data_extract_to_stdout.o)
 .debug_frame   0x000000000000abd8       0x30 archival/libarchive/lib.a(data_skip.o)
 .debug_frame   0x000000000000ac08      0x328 archival/libarchive/lib.a(decompress_bunzip2.o)
 .debug_frame   0x000000000000af30      0x468 archival/libarchive/lib.a(decompress_gunzip.o)
 .debug_frame   0x000000000000b398       0xb8 archival/libarchive/lib.a(decompress_uncompress.o)
 .debug_frame   0x000000000000b450      0x188 archival/libarchive/lib.a(decompress_unlzma.o)
 .debug_frame   0x000000000000b5d8      0x3d8 archival/libarchive/lib.a(decompress_unxz.o)
 .debug_frame   0x000000000000b9b0       0x38 archival/libarchive/lib.a(filter_accept_list.o)
 .debug_frame   0x000000000000b9e8       0x50 archival/libarchive/lib.a(filter_accept_list_reassign.o)
 .debug_frame   0x000000000000ba38       0x48 archival/libarchive/lib.a(filter_accept_reject_list.o)
 .debug_frame   0x000000000000ba80       0x80 archival/libarchive/lib.a(find_list_entry.o)
 .debug_frame   0x000000000000bb00       0xa8 archival/libarchive/lib.a(get_header_cpio.o)
 .debug_frame   0x000000000000bba8      0x148 archival/libarchive/lib.a(get_header_tar.o)
 .debug_frame   0x000000000000bcf0       0x38 archival/libarchive/lib.a(get_header_tar_bz2.o)
 .debug_frame   0x000000000000bd28       0x38 archival/libarchive/lib.a(get_header_tar_gz.o)
 .debug_frame   0x000000000000bd60       0x38 archival/libarchive/lib.a(get_header_tar_lzma.o)
 .debug_frame   0x000000000000bd98       0x40 archival/libarchive/lib.a(get_header_tar_xz.o)
 .debug_frame   0x000000000000bdd8       0x30 archival/libarchive/lib.a(header_list.o)
 .debug_frame   0x000000000000be08       0x90 archival/libarchive/lib.a(header_verbose_list.o)
 .debug_frame   0x000000000000be98       0x40 archival/libarchive/lib.a(init_handle.o)
 .debug_frame   0x000000000000bed8      0x2e0 archival/libarchive/lib.a(open_transformer.o)
 .debug_frame   0x000000000000c1b8       0x60 archival/libarchive/lib.a(seek_by_jump.o)
 .debug_frame   0x000000000000c218       0x38 archival/libarchive/lib.a(seek_by_read.o)
 .debug_frame   0x000000000000c250       0x50 archival/libarchive/lib.a(unpack_ar_archive.o)
 .debug_frame   0x000000000000c2a0       0x58 archival/libarchive/lib.a(unsafe_prefix.o)
 .debug_frame   0x000000000000c2f8       0xc8 archival/libarchive/lib.a(unsafe_symlink_target.o)
 .debug_frame   0x000000000000c3c0       0x48 archival/libarchive/lib.a(data_align.o)
 .debug_frame   0x000000000000c408       0x30 archival/libarchive/lib.a(filter_accept_all.o)
 .debug_frame   0x000000000000c438       0xd0 archival/libarchive/lib.a(get_header_ar.o)
 .debug_frame   0x000000000000c508       0x30 archival/libarchive/lib.a(header_skip.o)
 .debug_frame   0x000000000000c538       0x38 console-tools/lib.a(clear.o)
 .debug_frame   0x000000000000c570       0xa8 coreutils/lib.a(cat.o)
 .debug_frame   0x000000000000c618       0x48 coreutils/lib.a(chgrp.o)
 .debug_frame   0x000000000000c660       0xb0 coreutils/lib.a(chmod.o)
 .debug_frame   0x000000000000c710       0x98 coreutils/lib.a(chown.o)
 .debug_frame   0x000000000000c7a8       0x38 coreutils/lib.a(chroot.o)
 .debug_frame   0x000000000000c7e0       0x60 coreutils/lib.a(cksum.o)
 .debug_frame   0x000000000000c840       0xb8 coreutils/lib.a(comm.o)
 .debug_frame   0x000000000000c8f8       0xa0 coreutils/lib.a(cp.o)
 .debug_frame   0x000000000000c998       0xb0 coreutils/lib.a(cut.o)
 .debug_frame   0x000000000000ca48       0x90 coreutils/lib.a(date.o)
 .debug_frame   0x000000000000cad8      0x2a0 coreutils/lib.a(dd.o)
 .debug_frame   0x000000000000cd78       0xb8 coreutils/lib.a(df.o)
 .debug_frame   0x000000000000ce30       0x38 coreutils/lib.a(dirname.o)
 .debug_frame   0x000000000000ce68       0x78 coreutils/lib.a(dos2unix.o)
 .debug_frame   0x000000000000cee0       0xc8 coreutils/lib.a(du.o)
 .debug_frame   0x000000000000cfa8       0x78 coreutils/lib.a(echo.o)
 .debug_frame   0x000000000000d020       0x58 coreutils/lib.a(env.o)
 .debug_frame   0x000000000000d078       0x68 coreutils/lib.a(expand.o)
 .debug_frame   0x000000000000d0e0      0x418 coreutils/lib.a(expr.o)
 .debug_frame   0x000000000000d4f8      0x170 coreutils/lib.a(factor.o)
 .debug_frame   0x000000000000d668       0xa8 coreutils/lib.a(fold.o)
 .debug_frame   0x000000000000d710       0x80 coreutils/lib.a(head.o)
 .debug_frame   0x000000000000d790       0x50 coreutils/lib.a(link.o)
 .debug_frame   0x000000000000d7e0       0x78 coreutils/lib.a(ln.o)
 .debug_frame   0x000000000000d858      0x380 coreutils/lib.a(ls.o)
 .debug_frame   0x000000000000dbd8       0xe0 coreutils/lib.a(md5_sha1_sum.o)
 .debug_frame   0x000000000000dcb8       0x70 coreutils/lib.a(mkdir.o)
 .debug_frame   0x000000000000dd28       0x90 coreutils/lib.a(mv.o)
 .debug_frame   0x000000000000ddb8       0x58 coreutils/lib.a(nl.o)
 .debug_frame   0x000000000000de10       0x68 coreutils/lib.a(nohup.o)
 .debug_frame   0x000000000000de78       0x48 coreutils/lib.a(printenv.o)
 .debug_frame   0x000000000000dec0      0x1f8 coreutils/lib.a(printf.o)
 .debug_frame   0x000000000000e0b8       0x48 coreutils/lib.a(pwd.o)
 .debug_frame   0x000000000000e100       0x58 coreutils/lib.a(readlink.o)
 .debug_frame   0x000000000000e158       0x50 coreutils/lib.a(realpath.o)
 .debug_frame   0x000000000000e1a8       0x68 coreutils/lib.a(rm.o)
 .debug_frame   0x000000000000e210       0x70 coreutils/lib.a(rmdir.o)
 .debug_frame   0x000000000000e280       0x80 coreutils/lib.a(seq.o)
 .debug_frame   0x000000000000e300       0x80 coreutils/lib.a(shred.o)
 .debug_frame   0x000000000000e380       0x70 coreutils/lib.a(shuf.o)
 .debug_frame   0x000000000000e3f0       0x50 coreutils/lib.a(sleep.o)
 .debug_frame   0x000000000000e440      0x210 coreutils/lib.a(sort.o)
 .debug_frame   0x000000000000e650       0x88 coreutils/lib.a(split.o)
 .debug_frame   0x000000000000e6d8       0xb0 coreutils/lib.a(sum.o)
 .debug_frame   0x000000000000e788      0x130 coreutils/lib.a(tail.o)
 .debug_frame   0x000000000000e8b8      0x240 coreutils/lib.a(test.o)
 .debug_frame   0x000000000000eaf8       0x80 coreutils/lib.a(touch.o)
 .debug_frame   0x000000000000eb78       0xe0 coreutils/lib.a(tr.o)
 .debug_frame   0x000000000000ec58       0x60 coreutils/lib.a(tsort.o)
 .debug_frame   0x000000000000ecb8       0x38 coreutils/lib.a(tty.o)
 .debug_frame   0x000000000000ecf0       0x60 coreutils/lib.a(uname.o)
 .debug_frame   0x000000000000ed50       0x68 coreutils/lib.a(uniq.o)
 .debug_frame   0x000000000000edb8       0x38 coreutils/lib.a(unlink.o)
 .debug_frame   0x000000000000edf0       0x40 coreutils/lib.a(usleep.o)
 .debug_frame   0x000000000000ee30       0x68 coreutils/lib.a(uudecode.o)
 .debug_frame   0x000000000000ee98       0x68 coreutils/lib.a(wc.o)
 .debug_frame   0x000000000000ef00       0x40 coreutils/lib.a(whoami.o)
 .debug_frame   0x000000000000ef40       0x68 coreutils/libcoreutils/lib.a(cp_mv_stat.o)
 .debug_frame   0x000000000000efa8       0x80 debianutils/lib.a(pipe_progress.o)
 .debug_frame   0x000000000000f028      0x100 debianutils/lib.a(run_parts.o)
 .debug_frame   0x000000000000f128       0x80 debianutils/lib.a(which.o)
 .debug_frame   0x000000000000f1a8      0xdf0 editors/lib.a(awk.o)
 .debug_frame   0x000000000000ff98       0x98 editors/lib.a(cmp.o)
 .debug_frame   0x0000000000010030      0x370 editors/lib.a(diff.o)
 .debug_frame   0x00000000000103a0      0x428 editors/lib.a(ed.o)
 .debug_frame   0x00000000000107c8      0x208 editors/lib.a(patch.o)
 .debug_frame   0x00000000000109d0      0x560 editors/lib.a(sed.o)
 .debug_frame   0x0000000000010f30     0x13e8 editors/lib.a(vi.o)
 .debug_frame   0x0000000000012318      0x668 findutils/lib.a(find.o)
 .debug_frame   0x0000000000012980      0x238 findutils/lib.a(grep.o)
 .debug_frame   0x0000000000012bb8      0x210 findutils/lib.a(xargs.o)
 .debug_frame   0x0000000000012dc8       0x60 libbb/lib.a(ask_confirmation.o)
 .debug_frame   0x0000000000012e28       0x60 libbb/lib.a(bb_cat.o)
 .debug_frame   0x0000000000012e88       0x68 libbb/lib.a(bb_getgroups.o)
 .debug_frame   0x0000000000012ef0      0x208 libbb/lib.a(bb_pwd.o)
 .debug_frame   0x00000000000130f8       0x50 libbb/lib.a(bb_qsort.o)
 .debug_frame   0x0000000000013148       0x40 libbb/lib.a(chomp.o)
 .debug_frame   0x0000000000013188       0x30 libbb/lib.a(concat_subpath_file.o)
 .debug_frame   0x00000000000131b8       0x38 libbb/lib.a(const_hack.o)
 .debug_frame   0x00000000000131f0       0xd0 libbb/lib.a(copy_file.o)
 .debug_frame   0x00000000000132c0       0xb8 libbb/lib.a(crc32.o)
 .debug_frame   0x0000000000013378       0x90 libbb/lib.a(duration.o)
 .debug_frame   0x0000000000013408       0x30 libbb/lib.a(endofname.o)
 .debug_frame   0x0000000000013438       0xf0 libbb/lib.a(executable.o)
 .debug_frame   0x0000000000013528       0x48 libbb/lib.a(fclose_nonstdin.o)
 .debug_frame   0x0000000000013570       0x58 libbb/lib.a(fflush_stdout_and_exit.o)
 .debug_frame   0x00000000000135c8       0xc8 libbb/lib.a(fgets_str.o)
 .debug_frame   0x0000000000013690       0x70 libbb/lib.a(find_mount_point.o)
 .debug_frame   0x0000000000013700       0xb8 libbb/lib.a(get_line_from_file.o)
 .debug_frame   0x00000000000137b8       0x38 libbb/lib.a(get_shell_name.o)
 .debug_frame   0x00000000000137f0      0x330 libbb/lib.a(hash_md5_sha.o)
 .debug_frame   0x0000000000013b20       0xa0 libbb/lib.a(human_readable.o)
 .debug_frame   0x0000000000013bc0       0x30 libbb/lib.a(inet_cksum.o)
 .debug_frame   0x0000000000013bf0       0x68 libbb/lib.a(inode_hash.o)
 .debug_frame   0x0000000000013c58       0x38 libbb/lib.a(isdirectory.o)
 .debug_frame   0x0000000000013c90       0x38 libbb/lib.a(isqrt.o)
 .debug_frame   0x0000000000013cc8      0xbc8 libbb/lib.a(lineedit.o)
 .debug_frame   0x0000000000014890       0x80 libbb/lib.a(make_directory.o)
 .debug_frame   0x0000000000014910       0x40 libbb/lib.a(mode_string.o)
 .debug_frame   0x0000000000014950       0x88 libbb/lib.a(parse_mode.o)
 .debug_frame   0x00000000000149d8       0x90 libbb/lib.a(percent_decode.o)
 .debug_frame   0x0000000000014a68       0x30 libbb/lib.a(perror_nomsg_and_die.o)
 .debug_frame   0x0000000000014a98       0x60 libbb/lib.a(print_numbered_lines.o)
 .debug_frame   0x0000000000014af8       0x80 libbb/lib.a(printable.o)
 .debug_frame   0x0000000000014b78       0x58 libbb/lib.a(printable_string.o)
 .debug_frame   0x0000000000014bd0       0x70 libbb/lib.a(process_escape_sequence.o)
 .debug_frame   0x0000000000014c40      0x278 libbb/lib.a(procps.o)
 .debug_frame   0x0000000000014eb8       0x88 libbb/lib.a(progress.o)
 .debug_frame   0x0000000000014f40      0x138 libbb/lib.a(read_key.o)
 .debug_frame   0x0000000000015078      0x210 libbb/lib.a(read_printf.o)
 .debug_frame   0x0000000000015288       0xb8 libbb/lib.a(recursive_action.o)
 .debug_frame   0x0000000000015340       0x90 libbb/lib.a(remove_file.o)
 .debug_frame   0x00000000000153d0       0xa8 libbb/lib.a(replace.o)
 .debug_frame   0x0000000000015478       0x40 libbb/lib.a(safe_gethostname.o)
 .debug_frame   0x00000000000154b8       0x60 libbb/lib.a(safe_poll.o)
 .debug_frame   0x0000000000015518       0x50 libbb/lib.a(single_argv.o)
 .debug_frame   0x0000000000015568       0x68 libbb/lib.a(skip_whitespace.o)
 .debug_frame   0x00000000000155d0       0x30 libbb/lib.a(str_tolower.o)
 .debug_frame   0x0000000000015600       0x38 libbb/lib.a(sysconf.o)
 .debug_frame   0x0000000000015638       0xb8 libbb/lib.a(u_signal_names.o)
 .debug_frame   0x00000000000156f0      0x338 libbb/lib.a(unicode.o)
 .debug_frame   0x0000000000015a28       0xd8 libbb/lib.a(uuencode.o)
 .debug_frame   0x0000000000015b00      0x100 libbb/lib.a(wfopen.o)
 .debug_frame   0x0000000000015c00       0x98 libbb/lib.a(wfopen_input.o)
 .debug_frame   0x0000000000015c98      0x500 libbb/lib.a(xconnect.o)
 .debug_frame   0x0000000000016198       0x60 libbb/lib.a(xrealloc_vector.o)
 .debug_frame   0x00000000000161f8       0x80 libbb/lib.a(xregcomp.o)
 .debug_frame   0x0000000000016278       0x48 libbb/lib.a(auto_string.o)
 .debug_frame   0x00000000000162c0       0xb8 libpwdgrp/lib.a(uidgid_get.o)
 .debug_frame   0x0000000000016378       0x38 libres/lib.a(freeaddrinfo.o)
 .debug_frame   0x00000000000163b0       0xe8 libres/lib.a(getaddrinfo.o)
 .debug_frame   0x0000000000016498       0x78 libres/lib.a(gethostbyname2_r.o)
 .debug_frame   0x0000000000016510       0x38 libres/lib.a(res_init.o)
 .debug_frame   0x0000000000016548      0x128 libres/lib.a(dnscruft.o)
 .debug_frame   0x0000000000016670       0xb8 libres/lib.a(dnscruft2.o)
 .debug_frame   0x0000000000016728       0x90 libres/lib.a(res_query.o)
 .debug_frame   0x00000000000167b8       0x78 libres/lib.a(res_mkquery.o)

.debug_line     0x0000000000000000    0x45fa8
 .debug_line    0x0000000000000000      0x4e4 libbb/lib.a(appletlib.o)
 .debug_line    0x00000000000004e4      0x29d libbb/lib.a(compare_string_array.o)
 .debug_line    0x0000000000000781       0x76 libbb/lib.a(concat_path_file.o)
 .debug_line    0x00000000000007f7       0x7b libbb/lib.a(default_error_retval.o)
 .debug_line    0x0000000000000872       0xd0 libbb/lib.a(get_last_path_component.o)
 .debug_line    0x0000000000000942       0x6e libbb/lib.a(last_char_is.o)
 .debug_line    0x00000000000009b0       0x32 libbb/lib.a(messages.o)
 .debug_line    0x00000000000009e2      0x102 libbb/lib.a(perror_msg.o)
 .debug_line    0x0000000000000ae4       0x38 libbb/lib.a(ptr_to_globals.o)
 .debug_line    0x0000000000000b1c      0x29f libbb/lib.a(verror_msg.o)
 .debug_line    0x0000000000000dbb      0x39e libbb/lib.a(vfork_daemon_rexec.o)
 .debug_line    0x0000000000001159       0x57 libbb/lib.a(xfunc_die.o)
 .debug_line    0x00000000000011b0      0x66e libbb/lib.a(xfuncs.o)
 .debug_line    0x000000000000181e      0xce8 libbb/lib.a(xfuncs_printf.o)
 .debug_line    0x0000000000002506      0x2aa libbb/lib.a(xreadlink.o)
 .debug_line    0x00000000000027b0      0x207 libbb/lib.a(copyfd.o)
 .debug_line    0x00000000000029b7      0x12d libbb/lib.a(full_write.o)
 .debug_line    0x0000000000002ae4      0x523 libbb/lib.a(getopt32.o)
 .debug_line    0x0000000000003007      0x19b libbb/lib.a(llist.o)
 .debug_line    0x00000000000031a2      0x19c libbb/lib.a(read.o)
 .debug_line    0x000000000000333e       0xdc libbb/lib.a(safe_strncpy.o)
 .debug_line    0x000000000000341a      0x119 libbb/lib.a(safe_write.o)
 .debug_line    0x0000000000003533      0x386 libbb/lib.a(signals.o)
 .debug_line    0x00000000000038b9      0x4fb libbb/lib.a(time.o)
 .debug_line    0x0000000000003db4      0x581 libbb/lib.a(xatonum.o)
 .debug_line    0x0000000000004335       0x77 libbb/lib.a(xgetcwd.o)
 .debug_line    0x00000000000043ac      0x28e libbb/lib.a(bb_strtonum.o)
 .debug_line    0x000000000000463a      0x10a miscutils/lib.a(readahead.o)
 .debug_line    0x0000000000004744      0x38f networking/lib.a(nslookup.o)
 .debug_line    0x0000000000004ad3      0x821 networking/lib.a(ping.o)
 .debug_line    0x00000000000052f4     0x11aa networking/lib.a(wget.o)
 .debug_line    0x000000000000649e       0xca networking/lib.a(parse_pasv_epsv.o)
 .debug_line    0x0000000000006568     0x1071 networking/lib.a(tls.o)
 .debug_line    0x00000000000075d9      0x672 networking/lib.a(tls_aes.o)
 .debug_line    0x0000000000007c4b      0x17a networking/lib.a(tls_aesgcm.o)
 .debug_line    0x0000000000007dc5      0x3e8 networking/lib.a(tls_fe.o)
 .debug_line    0x00000000000081ad     0x12bb networking/lib.a(tls_pstm.o)
 .debug_line    0x0000000000009468      0x1ca networking/lib.a(tls_pstm_montgomery_reduce.o)
 .debug_line    0x0000000000009632      0x1cc networking/lib.a(tls_pstm_mul_comba.o)
 .debug_line    0x00000000000097fe      0x1cf networking/lib.a(tls_pstm_sqr_comba.o)
 .debug_line    0x00000000000099cd      0x1e5 networking/lib.a(tls_rsa.o)
 .debug_line    0x0000000000009bb2      0x84c networking/lib.a(tls_sp_c32.o)
 .debug_line    0x000000000000a3fe      0x25b procps/lib.a(kill.o)
 .debug_line    0x000000000000a659      0x1bc procps/lib.a(lsof.o)
 .debug_line    0x000000000000a815     0x9d57 shell/lib.a(ash.o)
 .debug_line    0x000000000001456c       0x36 shell/lib.a(ash_ptr_hack.o)
 .debug_line    0x00000000000145a2      0x13f shell/lib.a(cttyhack.o)
 .debug_line    0x00000000000146e1      0x67d shell/lib.a(math.o)
 .debug_line    0x0000000000014d5e      0x113 shell/lib.a(random.o)
 .debug_line    0x0000000000014e71      0x803 shell/lib.a(shell_common.o)
 .debug_line    0x0000000000015674      0x3a7 dowork/lib.a(dowork.o)
 .debug_line    0x0000000000015a1b      0x460 archival/lib.a(ar.o)
 .debug_line    0x0000000000015e7b      0x596 archival/lib.a(bbunzip.o)
 .debug_line    0x0000000000016411     0x1d1f archival/lib.a(bzip2.o)
 .debug_line    0x0000000000018130      0x60b archival/lib.a(cpio.o)
 .debug_line    0x000000000001873b     0x1cf0 archival/lib.a(dpkg.o)
 .debug_line    0x000000000001a42b      0x1f7 archival/lib.a(dpkg_deb.o)
 .debug_line    0x000000000001a622     0x122f archival/lib.a(gzip.o)
 .debug_line    0x000000000001b851      0x7a2 archival/lib.a(rpm.o)
 .debug_line    0x000000000001bff3      0xaeb archival/lib.a(tar.o)
 .debug_line    0x000000000001cade      0x94c archival/lib.a(unzip.o)
 .debug_line    0x000000000001d42a       0x93 archival/lib.a(chksum_and_xwrite_tar_header.o)
 .debug_line    0x000000000001d4bd       0x3e archival/libarchive/lib.a(common.o)
 .debug_line    0x000000000001d4fb      0x493 archival/libarchive/lib.a(data_extract_all.o)
 .debug_line    0x000000000001d98e      0x2f1 archival/libarchive/lib.a(data_extract_to_command.o)
 .debug_line    0x000000000001dc7f      0x14e archival/libarchive/lib.a(data_extract_to_stdout.o)
 .debug_line    0x000000000001ddcd      0x143 archival/libarchive/lib.a(data_skip.o)
 .debug_line    0x000000000001df10      0xacb archival/libarchive/lib.a(decompress_bunzip2.o)
 .debug_line    0x000000000001e9db      0xf73 archival/libarchive/lib.a(decompress_gunzip.o)
 .debug_line    0x000000000001f94e      0x4d3 archival/libarchive/lib.a(decompress_uncompress.o)
 .debug_line    0x000000000001fe21      0xa82 archival/libarchive/lib.a(decompress_unlzma.o)
 .debug_line    0x00000000000208a3     0x1850 archival/libarchive/lib.a(decompress_unxz.o)
 .debug_line    0x00000000000220f3      0x14f archival/libarchive/lib.a(filter_accept_list.o)
 .debug_line    0x0000000000022242      0x1b7 archival/libarchive/lib.a(filter_accept_list_reassign.o)
 .debug_line    0x00000000000223f9      0x17c archival/libarchive/lib.a(filter_accept_reject_list.o)
 .debug_line    0x0000000000022575      0x10f archival/libarchive/lib.a(find_list_entry.o)
 .debug_line    0x0000000000022684      0x3db archival/libarchive/lib.a(get_header_cpio.o)
 .debug_line    0x0000000000022a5f      0x5c2 archival/libarchive/lib.a(get_header_tar.o)
 .debug_line    0x0000000000023021      0x152 archival/libarchive/lib.a(get_header_tar_bz2.o)
 .debug_line    0x0000000000023173      0x151 archival/libarchive/lib.a(get_header_tar_gz.o)
 .debug_line    0x00000000000232c4      0x155 archival/libarchive/lib.a(get_header_tar_lzma.o)
 .debug_line    0x0000000000023419      0x156 archival/libarchive/lib.a(get_header_tar_xz.o)
 .debug_line    0x000000000002356f      0x123 archival/libarchive/lib.a(header_list.o)
 .debug_line    0x0000000000023692      0x1cd archival/libarchive/lib.a(header_verbose_list.o)
 .debug_line    0x000000000002385f      0x15b archival/libarchive/lib.a(init_handle.o)
 .debug_line    0x00000000000239ba      0x530 archival/libarchive/lib.a(open_transformer.o)
 .debug_line    0x0000000000023eea       0xef archival/libarchive/lib.a(seek_by_jump.o)
 .debug_line    0x0000000000023fd9       0xd8 archival/libarchive/lib.a(seek_by_read.o)
 .debug_line    0x00000000000240b1      0x164 archival/libarchive/lib.a(unpack_ar_archive.o)
 .debug_line    0x0000000000024215       0xb7 archival/libarchive/lib.a(unsafe_prefix.o)
 .debug_line    0x00000000000242cc       0xef archival/libarchive/lib.a(unsafe_symlink_target.o)
 .debug_line    0x00000000000243bb      0x156 archival/libarchive/lib.a(data_align.o)
 .debug_line    0x0000000000024511      0x148 archival/libarchive/lib.a(filter_accept_all.o)
 .debug_line    0x0000000000024659      0x2ba archival/libarchive/lib.a(get_header_ar.o)
 .debug_line    0x0000000000024913      0x11f archival/libarchive/lib.a(header_skip.o)
 .debug_line    0x0000000000024a32       0x55 console-tools/lib.a(clear.o)
 .debug_line    0x0000000000024a87      0x1b0 coreutils/lib.a(cat.o)
 .debug_line    0x0000000000024c37       0x66 coreutils/lib.a(chgrp.o)
 .debug_line    0x0000000000024c9d      0x237 coreutils/lib.a(chmod.o)
 .debug_line    0x0000000000024ed4      0x1fc coreutils/lib.a(chown.o)
 .debug_line    0x00000000000250d0       0x78 coreutils/lib.a(chroot.o)
 .debug_line    0x0000000000025148      0x1fb coreutils/lib.a(cksum.o)
 .debug_line    0x0000000000025343      0x18b coreutils/lib.a(comm.o)
 .debug_line    0x00000000000254ce      0x340 coreutils/lib.a(cp.o)
 .debug_line    0x000000000002580e      0x54a coreutils/lib.a(cut.o)
 .debug_line    0x0000000000025d58      0x40b coreutils/lib.a(date.o)
 .debug_line    0x0000000000026163      0x7e2 coreutils/lib.a(dd.o)
 .debug_line    0x0000000000026945      0x3d1 coreutils/lib.a(df.o)
 .debug_line    0x0000000000026d16       0x57 coreutils/lib.a(dirname.o)
 .debug_line    0x0000000000026d6d      0x289 coreutils/lib.a(dos2unix.o)
 .debug_line    0x0000000000026ff6      0x3c0 coreutils/lib.a(du.o)
 .debug_line    0x00000000000273b6      0x186 coreutils/lib.a(echo.o)
 .debug_line    0x000000000002753c      0x106 coreutils/lib.a(env.o)
 .debug_line    0x0000000000027642      0x19d coreutils/lib.a(expand.o)
 .debug_line    0x00000000000277df      0x811 coreutils/lib.a(expr.o)
 .debug_line    0x0000000000027ff0      0x29e coreutils/lib.a(factor.o)
 .debug_line    0x000000000002828e      0x28a coreutils/lib.a(fold.o)
 .debug_line    0x0000000000028518      0x307 coreutils/lib.a(head.o)
 .debug_line    0x000000000002881f       0x6c coreutils/lib.a(link.o)
 .debug_line    0x000000000002888b      0x292 coreutils/lib.a(ln.o)
 .debug_line    0x0000000000028b1d      0xc5b coreutils/lib.a(ls.o)
 .debug_line    0x0000000000029778      0x2f3 coreutils/lib.a(md5_sha1_sum.o)
 .debug_line    0x0000000000029a6b      0x13b coreutils/lib.a(mkdir.o)
 .debug_line    0x0000000000029ba6      0x359 coreutils/lib.a(mv.o)
 .debug_line    0x0000000000029eff       0xe8 coreutils/lib.a(nl.o)
 .debug_line    0x0000000000029fe7      0x125 coreutils/lib.a(nohup.o)
 .debug_line    0x000000000002a10c       0xc1 coreutils/lib.a(printenv.o)
 .debug_line    0x000000000002a1cd      0x520 coreutils/lib.a(printf.o)
 .debug_line    0x000000000002a6ed       0x6d coreutils/lib.a(pwd.o)
 .debug_line    0x000000000002a75a       0xae coreutils/lib.a(readlink.o)
 .debug_line    0x000000000002a808       0x94 coreutils/lib.a(realpath.o)
 .debug_line    0x000000000002a89c       0xc3 coreutils/lib.a(rm.o)
 .debug_line    0x000000000002a95f       0xc5 coreutils/lib.a(rmdir.o)
 .debug_line    0x000000000002aa24      0x17b coreutils/lib.a(seq.o)
 .debug_line    0x000000000002ab9f      0x25b coreutils/lib.a(shred.o)
 .debug_line    0x000000000002adfa      0x2dd coreutils/lib.a(shuf.o)
 .debug_line    0x000000000002b0d7       0xa2 coreutils/lib.a(sleep.o)
 .debug_line    0x000000000002b179      0x8c7 coreutils/lib.a(sort.o)
 .debug_line    0x000000000002ba40      0x2e4 coreutils/lib.a(split.o)
 .debug_line    0x000000000002bd24      0x268 coreutils/lib.a(sum.o)
 .debug_line    0x000000000002bf8c      0x751 coreutils/lib.a(tail.o)
 .debug_line    0x000000000002c6dd      0x882 coreutils/lib.a(test.o)
 .debug_line    0x000000000002cf5f       0x3b coreutils/lib.a(test_ptr_hack.o)
 .debug_line    0x000000000002cf9a      0x2a5 coreutils/lib.a(touch.o)
 .debug_line    0x000000000002d23f      0x5e0 coreutils/lib.a(tr.o)
 .debug_line    0x000000000002d81f      0x31e coreutils/lib.a(tsort.o)
 .debug_line    0x000000000002db3d       0x59 coreutils/lib.a(tty.o)
 .debug_line    0x000000000002db96      0x13f coreutils/lib.a(uname.o)
 .debug_line    0x000000000002dcd5      0x19d coreutils/lib.a(uniq.o)
 .debug_line    0x000000000002de72       0x56 coreutils/lib.a(unlink.o)
 .debug_line    0x000000000002dec8       0x60 coreutils/lib.a(usleep.o)
 .debug_line    0x000000000002df28      0x205 coreutils/lib.a(uudecode.o)
 .debug_line    0x000000000002e12d      0x27a coreutils/lib.a(wc.o)
 .debug_line    0x000000000002e3a7       0x5f coreutils/lib.a(whoami.o)
 .debug_line    0x000000000002e406      0x1cb coreutils/libcoreutils/lib.a(cp_mv_stat.o)
 .debug_line    0x000000000002e5d1      0x117 debianutils/lib.a(pipe_progress.o)
 .debug_line    0x000000000002e6e8      0x314 debianutils/lib.a(run_parts.o)
 .debug_line    0x000000000002e9fc       0xdc debianutils/lib.a(which.o)
 .debug_line    0x000000000002ead8     0x300c editors/lib.a(awk.o)
 .debug_line    0x0000000000031ae4      0x218 editors/lib.a(cmp.o)
 .debug_line    0x0000000000031cfc     0x123e editors/lib.a(diff.o)
 .debug_line    0x0000000000032f3a      0xd85 editors/lib.a(ed.o)
 .debug_line    0x0000000000033cbf      0x9ac editors/lib.a(patch.o)
 .debug_line    0x000000000003466b     0x14b0 editors/lib.a(sed.o)
 .debug_line    0x0000000000035b1b     0x3bea editors/lib.a(vi.o)
 .debug_line    0x0000000000039705      0xecd findutils/lib.a(find.o)
 .debug_line    0x000000000003a5d2      0xa1c findutils/lib.a(grep.o)
 .debug_line    0x000000000003afee      0x727 findutils/lib.a(xargs.o)
 .debug_line    0x000000000003b715       0xd5 libbb/lib.a(ask_confirmation.o)
 .debug_line    0x000000000003b7ea       0xfd libbb/lib.a(bb_cat.o)
 .debug_line    0x000000000003b8e7      0x121 libbb/lib.a(bb_getgroups.o)
 .debug_line    0x000000000003ba08      0x2ea libbb/lib.a(bb_pwd.o)
 .debug_line    0x000000000003bcf2       0x6b libbb/lib.a(bb_qsort.o)
 .debug_line    0x000000000003bd5d       0x52 libbb/lib.a(chomp.o)
 .debug_line    0x000000000003bdaf       0x37 libbb/lib.a(common_bufsiz.o)
 .debug_line    0x000000000003bde6       0x66 libbb/lib.a(concat_subpath_file.o)
 .debug_line    0x000000000003be4c       0xb0 libbb/lib.a(const_hack.o)
 .debug_line    0x000000000003befc      0x687 libbb/lib.a(copy_file.o)
 .debug_line    0x000000000003c583      0x1ae libbb/lib.a(crc32.o)
 .debug_line    0x000000000003c731      0x1f3 libbb/lib.a(duration.o)
 .debug_line    0x000000000003c924       0x97 libbb/lib.a(endofname.o)
 .debug_line    0x000000000003c9bb      0x236 libbb/lib.a(executable.o)
 .debug_line    0x000000000003cbf1       0xb0 libbb/lib.a(fclose_nonstdin.o)
 .debug_line    0x000000000003cca1       0x7d libbb/lib.a(fflush_stdout_and_exit.o)
 .debug_line    0x000000000003cd1e      0x1a7 libbb/lib.a(fgets_str.o)
 .debug_line    0x000000000003cec5      0x26c libbb/lib.a(find_mount_point.o)
 .debug_line    0x000000000003d131      0x186 libbb/lib.a(get_line_from_file.o)
 .debug_line    0x000000000003d2b7      0x130 libbb/lib.a(get_shell_name.o)
 .debug_line    0x000000000003d3e7      0x885 libbb/lib.a(hash_md5_sha.o)
 .debug_line    0x000000000003dc6c       0xfd libbb/lib.a(hash_md5_sha256_x86-64_shaNI.o)
 .debug_line    0x000000000003dd69       0xd6 libbb/lib.a(hash_md5_sha_x86-64_shaNI.o)
 .debug_line    0x000000000003de3f      0x304 libbb/lib.a(human_readable.o)
 .debug_line    0x000000000003e143       0xd0 libbb/lib.a(inet_cksum.o)
 .debug_line    0x000000000003e213      0x215 libbb/lib.a(inode_hash.o)
 .debug_line    0x000000000003e428      0x18e libbb/lib.a(isdirectory.o)
 .debug_line    0x000000000003e5b6       0x62 libbb/lib.a(isqrt.o)
 .debug_line    0x000000000003e618     0x2356 libbb/lib.a(lineedit.o)
 .debug_line    0x000000000004096e       0x3b libbb/lib.a(lineedit_ptr_hack.o)
 .debug_line    0x00000000000409a9      0x2ae libbb/lib.a(make_directory.o)
 .debug_line    0x0000000000040c57      0x13d libbb/lib.a(mode_string.o)
 .debug_line    0x0000000000040d94      0x257 libbb/lib.a(parse_mode.o)
 .debug_line    0x0000000000040feb      0x11e libbb/lib.a(percent_decode.o)
 .debug_line    0x0000000000041109       0x55 libbb/lib.a(perror_nomsg_and_die.o)
 .debug_line    0x000000000004115e      0x121 libbb/lib.a(print_numbered_lines.o)
 .debug_line    0x000000000004127f      0x152 libbb/lib.a(printable.o)
 .debug_line    0x00000000000413d1       0xb0 libbb/lib.a(printable_string.o)
 .debug_line    0x0000000000041481      0x179 libbb/lib.a(process_escape_sequence.o)
 .debug_line    0x00000000000415fa      0x5f8 libbb/lib.a(procps.o)
 .debug_line    0x0000000000041bf2      0x1f0 libbb/lib.a(progress.o)
 .debug_line    0x0000000000041de2      0x348 libbb/lib.a(read_key.o)
 .debug_line    0x000000000004212a      0x40e libbb/lib.a(read_printf.o)
 .debug_line    0x0000000000042538      0x2f9 libbb/lib.a(recursive_action.o)
 .debug_line    0x0000000000042831      0x317 libbb/lib.a(remove_file.o)
 .debug_line    0x0000000000042b48      0x11b libbb/lib.a(replace.o)
 .debug_line    0x0000000000042c63       0xa7 libbb/lib.a(safe_gethostname.o)
 .debug_line    0x0000000000042d0a       0xe2 libbb/lib.a(safe_poll.o)
 .debug_line    0x0000000000042dec       0x75 libbb/lib.a(single_argv.o)
 .debug_line    0x0000000000042e61       0xb7 libbb/lib.a(skip_whitespace.o)
 .debug_line    0x0000000000042f18       0x8d libbb/lib.a(str_tolower.o)
 .debug_line    0x0000000000042fa5       0x48 libbb/lib.a(sysconf.o)
 .debug_line    0x0000000000042fed       0xe0 libbb/lib.a(u_signal_names.o)
 .debug_line    0x00000000000430cd      0x82a libbb/lib.a(unicode.o)
 .debug_line    0x00000000000438f7      0x2cf libbb/lib.a(uuencode.o)
 .debug_line    0x0000000000043bc6      0x151 libbb/lib.a(wfopen.o)
 .debug_line    0x0000000000043d17      0x109 libbb/lib.a(wfopen_input.o)
 .debug_line    0x0000000000043e20      0x899 libbb/lib.a(xconnect.o)
 .debug_line    0x00000000000446b9       0xc8 libbb/lib.a(xrealloc_vector.o)
 .debug_line    0x0000000000044781      0x103 libbb/lib.a(xregcomp.o)
 .debug_line    0x0000000000044884       0xa4 libbb/lib.a(auto_string.o)
 .debug_line    0x0000000000044928      0x260 libpwdgrp/lib.a(uidgid_get.o)
 .debug_line    0x0000000000044b88      0x18a libres/lib.a(dnscruft3.o)
 .debug_line    0x0000000000044d12      0x165 libres/lib.a(freeaddrinfo.o)
 .debug_line    0x0000000000044e77      0x54a libres/lib.a(getaddrinfo.o)
 .debug_line    0x00000000000453c1       0xf9 libres/lib.a(gethostbyname2_r.o)
 .debug_line    0x00000000000454ba       0x4c libres/lib.a(res_init.o)
 .debug_line    0x0000000000045506      0x420 libres/lib.a(dnscruft.o)
 .debug_line    0x0000000000045926      0x2e4 libres/lib.a(dnscruft2.o)
 .debug_line    0x0000000000045c0a      0x253 libres/lib.a(res_query.o)
 .debug_line    0x0000000000045e5d       0x32 libres/lib.a(h_errno.o)
 .debug_line    0x0000000000045e8f      0x119 libres/lib.a(res_mkquery.o)

.debug_aranges  0x0000000000000000       0x60
 .debug_aranges
                0x0000000000000000       0x30 libbb/lib.a(hash_md5_sha256_x86-64_shaNI.o)
 .debug_aranges
                0x0000000000000030       0x30 libbb/lib.a(hash_md5_sha_x86-64_shaNI.o)

.note.gnu.gold-version
                0x0000000000000000       0x1c
 ** note header
                0x0000000000000000       0x10
 ** fill        0x0000000000000010        0x9
 ** zero fill   0x0000000000000019        0x3

.symtab         0x0000000000000000     0xc060
 ** symtab      0x0000000000000000     0xc060

.strtab         0x0000000000000000     0x669f
 ** string table
                0x0000000000000000     0x669f

.shstrtab       0x0000000000000000      0x192
 ** string table
                0x0000000000000000      0x192
